(dp1
S'20150325'
p2
I24
sS'20150324'
p3
I23
sS'20150327'
p4
I26
sS'20150326'
p5
I25
sS'20150321'
p6
I20
sS'20150320'
p7
I19
sS'20150323'
p8
I22
sS'20150322'
p9
I21
sS'20150329'
p10
I28
sS'20150328'
p11
I27
sS'20150430'
p12
I60
sS'20150709'
p13
I130
sS'20150630'
p14
I121
sS'20150530'
p15
I90
sS'20150531'
p16
I91
sS'20150723'
p17
I144
sS'20150708'
p18
I129
sS'20150725'
p19
I146
sS'20150724'
p20
I145
sS'20150727'
p21
I148
sS'20150726'
p22
I147
sS'20150729'
p23
I150
sS'20150728'
p24
I149
sS'20150828'
p25
I180
sS'20150829'
p26
I181
sS'20150809'
p27
I161
sS'20150804'
p28
I156
sS'20150805'
p29
I157
sS'20150701'
p30
I122
sS'20150602'
p31
I93
sS'20150603'
p32
I94
sS'20150601'
p33
I92
sS'20150606'
p34
I97
sS'20150607'
p35
I98
sS'20150604'
p36
I95
sS'20150605'
p37
I96
sS'20150608'
p38
I99
sS'20150609'
p39
I100
sS'20150801'
p40
I153
sS'20150523'
p41
I83
sS'20150522'
p42
I82
sS'20150521'
p43
I81
sS'20150520'
p44
I80
sS'20150527'
p45
I87
sS'20150526'
p46
I86
sS'20150525'
p47
I85
sS'20150524'
p48
I84
sS'20150529'
p49
I89
sS'20150528'
p50
I88
sS'20150822'
p51
I174
sS'20150730'
p52
I151
sS'20150806'
p53
I158
sS'20150615'
p54
I106
sS'20150614'
p55
I105
sS'20150617'
p56
I108
sS'20150616'
p57
I107
sS'20150611'
p58
I102
sS'20150610'
p59
I101
sS'20150613'
p60
I104
sS'20150612'
p61
I103
sS'20150811'
p62
I163
sS'20150619'
p63
I110
sS'20150618'
p64
I109
sS'20150516'
p65
I76
sS'20150517'
p66
I77
sS'20150514'
p67
I74
sS'20150515'
p68
I75
sS'20150512'
p69
I72
sS'20150513'
p70
I73
sS'20150510'
p71
I70
sS'20150511'
p72
I71
sS'20150807'
p73
I159
sS'20150518'
p74
I78
sS'20150519'
p75
I79
sS'20150810'
p76
I162
sS'20150710'
p77
I131
sS'20150711'
p78
I132
sS'20150808'
p79
I160
sS'20150509'
p80
I69
sS'20150508'
p81
I68
sS'20150501'
p82
I61
sS'20150503'
p83
I63
sS'20150502'
p84
I62
sS'20150505'
p85
I65
sS'20150504'
p86
I64
sS'20150507'
p87
I67
sS'20150506'
p88
I66
sS'20150821'
p89
I173
sS'20150802'
p90
I154
sS'20150721'
p91
I142
sS'20150720'
p92
I141
sS'20150820'
p93
I172
sS'20150722'
p94
I143
sS'20150803'
p95
I155
sS'20150826'
p96
I178
sS'20150827'
p97
I179
sS'20150824'
p98
I176
sS'20150825'
p99
I177
sS'20150318'
p100
I17
sS'20150319'
p101
I18
sS'20150314'
p102
I13
sS'20150315'
p103
I14
sS'20150316'
p104
I15
sS'20150317'
p105
I16
sS'20150310'
p106
I9
sS'20150311'
p107
I10
sS'20150312'
p108
I11
sS'20150313'
p109
I12
sS'20150718'
p110
I139
sS'20150401'
p111
I31
sS'20150402'
p112
I32
sS'20150403'
p113
I33
sS'20150404'
p114
I34
sS'20150405'
p115
I35
sS'20150406'
p116
I36
sS'20150407'
p117
I37
sS'20150408'
p118
I38
sS'20150409'
p119
I39
sS'20150712'
p120
I133
sS'20150713'
p121
I134
sS'20150714'
p122
I135
sS'20150715'
p123
I136
sS'20150716'
p124
I137
sS'20150717'
p125
I138
sS'20150309'
p126
I8
sS'20150308'
p127
I7
sS'20150307'
p128
I6
sS'20150306'
p129
I5
sS'20150305'
p130
I4
sS'20150304'
p131
I3
sS'20150303'
p132
I2
sS'20150302'
p133
I1
sS'20150301'
p134
I0
sS'20150823'
p135
I175
sS'20150413'
p136
I43
sS'20150412'
p137
I42
sS'20150411'
p138
I41
sS'20150410'
p139
I40
sS'20150417'
p140
I47
sS'20150416'
p141
I46
sS'20150415'
p142
I45
sS'20150414'
p143
I44
sS'20150703'
p144
I124
sS'20150702'
p145
I123
sS'20150419'
p146
I49
sS'20150418'
p147
I48
sS'20150707'
p148
I128
sS'20150706'
p149
I127
sS'20150705'
p150
I126
sS'20150704'
p151
I125
sS'20150819'
p152
I171
sS'20150818'
p153
I170
sS'20150330'
p154
I29
sS'20150331'
p155
I30
sS'20150719'
p156
I140
sS'20150830'
p157
I182
sS'20150814'
p158
I166
sS'20150628'
p159
I119
sS'20150629'
p160
I120
sS'20150624'
p161
I115
sS'20150625'
p162
I116
sS'20150626'
p163
I117
sS'20150627'
p164
I118
sS'20150620'
p165
I111
sS'20150621'
p166
I112
sS'20150622'
p167
I113
sS'20150623'
p168
I114
sS'20150426'
p169
I56
sS'20150427'
p170
I57
sS'20150424'
p171
I54
sS'20150425'
p172
I55
sS'20150422'
p173
I52
sS'20150423'
p174
I53
sS'20150420'
p175
I50
sS'20150421'
p176
I51
sS'20150817'
p177
I169
sS'20150816'
p178
I168
sS'20150815'
p179
I167
sS'20150731'
p180
I152
sS'20150813'
p181
I165
sS'20150812'
p182
I164
sS'20150428'
p183
I58
sS'20150429'
p184
I59
s.