(lp1
(lp2
I2
aI4
aI8
aI11
aI12
aI14
aI22
aI26
aI27
aI28
aI29
aI30
aI31
aI32
aI33
aI34
aI35
aI36
aI37
aI38
aI39
aI40
aI41
aI42
aI43
aI44
aI45
aI46
aI47
aI48
aI49
aI50
aI51
aI52
aI53
aI54
aI55
aI56
aI57
aI58
aI59
aI60
aI61
aI62
aI63
aI64
aI65
aI66
aI67
aI68
aI69
aI70
aI71
aI72
aI73
aI74
aI75
aI76
aI77
aI78
aI79
aI80
aI81
aI82
aI83
aI84
aI85
aI86
aI87
aI88
aI89
aI90
aI91
aI92
aI93
aI94
aI95
aI96
aI97
aI98
aI99
aI100
aI101
aI102
aI103
aI104
aI105
aI106
aI107
aI108
aI109
aI110
aI111
aI112
aI113
aI114
aI115
aI116
aI117
aI118
aI119
aI120
aI121
aI122
aI123
aI124
aI125
aI126
aI127
aI128
aI129
aI130
aI131
aI132
aI133
aI134
aI135
aI136
aI137
aI138
aI139
aI140
aI141
aI142
aI143
aI144
aI145
aI146
aI147
aI148
aI149
aI150
aI151
aI152
aI153
aI154
aI155
aI156
aI157
aI158
aI159
aI160
aI161
aI162
aI163
aI164
aI165
aI166
aI167
aI168
aI169
aI170
aI171
aI172
aI173
aI174
aI175
aI176
aI177
aI178
aI179
aI180
aI181
aI182
aa(lp3
I0
aI1
aI26
aI27
aI29
aI30
aI34
aI37
aI38
aI40
aI41
aI42
aI44
aI45
aI47
aI48
aI49
aI52
aI53
aI54
aI55
aI56
aI57
aI58
aI60
aI61
aI62
aI66
aI67
aI68
aI69
aI73
aI74
aI75
aI76
aI78
aI79
aI82
aI83
aI84
aI85
aI86
aI87
aI88
aI89
aI90
aI91
aI92
aI93
aI94
aI95
aI96
aI98
aI99
aI100
aI101
aI102
aI103
aI104
aI105
aI106
aI107
aI108
aI109
aI110
aI111
aI113
aI114
aI115
aI116
aI117
aI118
aI119
aI120
aI121
aI122
aI123
aI124
aI125
aI126
aI127
aI128
aI129
aI130
aI131
aI132
aI133
aI134
aI135
aI136
aI137
aI138
aI139
aI140
aI141
aI142
aI144
aI145
aI146
aI148
aI149
aI150
aI151
aI152
aI153
aI154
aI155
aI156
aI158
aI159
aI160
aI161
aI162
aI163
aI165
aI166
aI167
aI168
aI169
aI170
aI171
aI172
aI173
aI175
aI176
aI177
aI178
aI179
aI180
aI181
aI182
aa(lp4
I4
aI5
aI7
aI8
aI9
aI10
aI11
aI13
aI14
aI15
aI16
aI17
aI18
aI19
aI20
aI21
aI22
aI23
aI24
aI25
aI27
aI28
aI29
aI30
aI31
aI32
aI33
aI34
aI35
aI36
aI37
aI38
aI39
aI40
aI41
aI42
aI43
aI44
aI45
aI46
aI47
aI48
aI49
aI50
aI51
aI52
aI53
aI54
aI55
aI56
aI57
aI58
aI59
aI60
aI61
aI62
aI63
aI64
aI65
aI66
aI67
aI68
aI69
aI70
aI71
aI72
aI73
aI74
aI75
aI76
aI77
aI78
aI79
aI80
aI81
aI82
aI83
aI84
aI85
aI86
aI87
aI88
aI89
aI90
aI91
aI92
aI93
aI94
aI95
aI96
aI97
aI98
aI99
aI100
aI101
aI102
aI103
aI104
aI105
aI106
aI107
aI108
aI109
aI110
aI111
aI112
aI113
aI114
aI115
aI116
aI117
aI118
aI119
aI120
aI121
aI122
aI123
aI124
aI125
aI126
aI127
aI128
aI129
aI130
aI131
aI132
aI133
aI134
aI135
aI136
aI137
aI138
aI139
aI140
aI141
aI142
aI143
aI144
aI145
aI146
aI147
aI148
aI149
aI150
aI151
aI152
aI153
aI154
aI155
aI156
aI157
aI158
aI159
aI160
aI161
aI162
aI163
aI164
aI165
aI166
aI167
aI168
aI169
aI170
aI171
aI172
aI173
aI174
aI175
aI176
aI177
aI178
aI179
aI180
aI181
aI182
aa(lp5
I21
aI31
aI33
aI37
aI38
aI39
aI41
aI42
aI49
aI50
aI51
aI52
aI53
aI54
aI55
aI56
aI57
aI58
aI59
aI60
aI61
aI62
aI63
aI64
aI65
aI66
aI67
aI68
aI69
aI70
aI71
aI72
aI73
aI74
aI75
aI76
aI77
aI78
aI80
aI81
aI82
aI84
aI85
aI86
aI87
aI88
aI89
aI90
aI91
aI92
aI93
aI94
aI95
aI96
aI97
aI98
aI99
aI100
aI101
aI102
aI103
aI104
aI105
aI106
aI107
aI108
aI109
aI110
aI111
aI112
aI113
aI114
aI115
aI116
aI117
aI118
aI119
aI120
aI121
aI122
aI123
aI124
aI125
aI126
aI127
aI128
aI129
aI130
aI131
aI132
aI133
aI134
aI135
aI136
aI137
aI138
aI139
aI140
aI141
aI142
aI143
aI144
aI145
aI146
aI147
aI148
aI149
aI150
aI151
aI152
aI153
aI154
aI155
aI156
aI157
aI158
aI159
aI160
aI161
aI162
aI163
aI164
aI165
aI166
aI167
aI169
aI170
aI171
aI172
aI173
aI174
aI175
aI176
aI177
aI178
aI180
aI181
aI182
aa(lp6
I2
aI10
aI12
aI13
aI24
aI25
aI26
aI28
aI29
aI31
aI32
aI33
aI34
aI35
aI36
aI37
aI38
aI39
aI40
aI41
aI42
aI43
aI44
aI45
aI46
aI47
aI48
aI49
aI50
aI51
aI52
aI53
aI54
aI55
aI56
aI57
aI58
aI59
aI60
aI61
aI62
aI63
aI64
aI65
aI66
aI67
aI68
aI69
aI70
aI71
aI72
aI73
aI74
aI75
aI76
aI77
aI78
aI79
aI80
aI81
aI82
aI83
aI84
aI85
aI86
aI87
aI88
aI89
aI90
aI91
aI92
aI93
aI94
aI95
aI96
aI97
aI98
aI99
aI100
aI101
aI102
aI103
aI104
aI105
aI106
aI107
aI108
aI109
aI110
aI111
aI112
aI113
aI114
aI115
aI116
aI117
aI118
aI119
aI120
aI121
aI122
aI123
aI124
aI125
aI126
aI127
aI128
aI129
aI130
aI131
aI132
aI133
aI134
aI135
aI136
aI137
aI138
aI139
aI140
aI141
aI142
aI143
aI144
aI145
aI146
aI147
aI148
aI149
aI150
aI151
aI152
aI153
aI154
aI155
aI156
aI157
aI158
aI159
aI160
aI161
aI162
aI163
aI164
aI165
aI166
aI167
aI168
aI169
aI170
aI171
aI172
aI173
aI174
aI175
aI176
aI177
aI178
aI179
aI180
aI181
aI182
aa(lp7
I1
aI2
aI13
aI19
aI25
aI28
aI29
aI30
aI31
aI32
aI33
aI34
aI35
aI36
aI37
aI38
aI39
aI40
aI41
aI42
aI43
aI44
aI45
aI46
aI47
aI48
aI49
aI50
aI51
aI52
aI53
aI54
aI55
aI56
aI57
aI58
aI59
aI60
aI61
aI62
aI63
aI64
aI65
aI66
aI67
aI68
aI69
aI70
aI71
aI72
aI73
aI74
aI75
aI76
aI77
aI78
aI79
aI80
aI81
aI82
aI83
aI84
aI85
aI86
aI87
aI88
aI89
aI90
aI91
aI92
aI93
aI94
aI95
aI96
aI97
aI98
aI99
aI100
aI101
aI102
aI103
aI104
aI105
aI106
aI107
aI108
aI109
aI110
aI111
aI112
aI113
aI114
aI115
aI116
aI117
aI118
aI119
aI120
aI121
aI122
aI123
aI124
aI125
aI126
aI127
aI128
aI129
aI130
aI131
aI132
aI133
aI134
aI135
aI136
aI137
aI138
aI139
aI140
aI141
aI142
aI143
aI144
aI145
aI146
aI147
aI148
aI149
aI150
aI151
aI152
aI153
aI154
aI155
aI156
aI157
aI158
aI159
aI160
aI161
aI162
aI163
aI164
aI165
aI166
aI167
aI168
aI169
aI170
aI171
aI172
aI173
aI174
aI175
aI176
aI177
aI178
aI179
aI180
aI181
aI182
aa(lp8
I8
aI16
aI18
aI19
aI22
aI24
aI25
aI27
aI28
aI29
aI30
aI31
aI32
aI33
aI34
aI35
aI36
aI37
aI38
aI39
aI40
aI41
aI42
aI43
aI44
aI45
aI46
aI47
aI48
aI49
aI50
aI51
aI52
aI53
aI54
aI55
aI56
aI57
aI58
aI59
aI60
aI61
aI62
aI63
aI64
aI65
aI66
aI67
aI68
aI69
aI70
aI71
aI72
aI73
aI74
aI75
aI76
aI77
aI78
aI79
aI80
aI81
aI82
aI83
aI84
aI85
aI86
aI87
aI88
aI89
aI90
aI91
aI92
aI93
aI94
aI95
aI96
aI97
aI98
aI99
aI100
aI101
aI102
aI103
aI104
aI105
aI106
aI107
aI108
aI109
aI110
aI111
aI112
aI113
aI114
aI115
aI116
aI117
aI118
aI119
aI120
aI121
aI122
aI123
aI124
aI125
aI126
aI127
aI128
aI129
aI130
aI131
aI132
aI133
aI134
aI135
aI136
aI137
aI138
aI139
aI140
aI141
aI142
aI143
aI144
aI145
aI146
aI147
aI148
aI149
aI150
aI151
aI152
aI153
aI154
aI155
aI156
aI157
aI158
aI159
aI160
aI161
aI162
aI163
aI164
aI165
aI166
aI167
aI168
aI169
aI170
aI171
aI172
aI173
aI174
aI175
aI176
aI177
aI178
aI179
aI180
aI181
aI182
aa(lp9
I0
aI1
aI6
aI8
aI11
aI12
aI13
aI18
aI22
aI26
aI27
aI28
aI29
aI30
aI31
aI32
aI33
aI34
aI35
aI36
aI37
aI38
aI39
aI40
aI41
aI42
aI43
aI44
aI45
aI46
aI47
aI48
aI49
aI50
aI51
aI52
aI53
aI54
aI55
aI56
aI57
aI58
aI59
aI60
aI61
aI62
aI63
aI64
aI65
aI66
aI67
aI68
aI69
aI70
aI71
aI72
aI73
aI74
aI75
aI76
aI77
aI78
aI79
aI80
aI81
aI82
aI83
aI84
aI85
aI86
aI87
aI88
aI89
aI90
aI91
aI92
aI93
aI94
aI95
aI96
aI97
aI98
aI99
aI100
aI101
aI102
aI103
aI104
aI105
aI106
aI107
aI108
aI109
aI110
aI111
aI112
aI113
aI114
aI115
aI116
aI118
aI119
aI120
aI121
aI122
aI123
aI124
aI125
aI126
aI127
aI128
aI129
aI130
aI131
aI132
aI133
aI134
aI135
aI136
aI137
aI138
aI139
aI140
aI141
aI142
aI143
aI144
aI145
aI146
aI147
aI148
aI149
aI150
aI151
aI152
aI153
aI154
aI155
aI156
aI157
aI158
aI159
aI160
aI161
aI162
aI163
aI164
aI165
aI166
aI167
aI168
aI169
aI170
aI171
aI172
aI173
aI174
aI175
aI176
aI177
aI178
aI179
aI180
aI181
aI182
aa(lp10
I2
aI6
aI7
aI10
aI12
aI14
aI16
aI23
aI24
aI27
aI28
aI29
aI30
aI31
aI32
aI33
aI34
aI35
aI36
aI37
aI38
aI39
aI40
aI41
aI42
aI43
aI44
aI45
aI46
aI47
aI48
aI49
aI50
aI51
aI52
aI53
aI54
aI55
aI56
aI57
aI58
aI59
aI60
aI61
aI62
aI63
aI64
aI65
aI66
aI67
aI68
aI69
aI70
aI71
aI72
aI73
aI74
aI75
aI76
aI77
aI78
aI79
aI80
aI81
aI82
aI83
aI84
aI85
aI86
aI87
aI88
aI89
aI90
aI91
aI92
aI93
aI94
aI95
aI96
aI97
aI98
aI99
aI100
aI101
aI102
aI103
aI104
aI105
aI106
aI107
aI108
aI109
aI110
aI111
aI112
aI113
aI114
aI115
aI116
aI117
aI118
aI119
aI120
aI121
aI122
aI123
aI124
aI125
aI126
aI127
aI128
aI129
aI130
aI131
aI132
aI133
aI134
aI135
aI136
aI137
aI138
aI139
aI140
aI141
aI142
aI143
aI144
aI145
aI146
aI147
aI148
aI149
aI150
aI151
aI152
aI153
aI154
aI155
aI156
aI157
aI158
aI159
aI160
aI161
aI162
aI163
aI164
aI165
aI166
aI167
aI168
aI169
aI170
aI171
aI172
aI173
aI174
aI175
aI176
aI177
aI178
aI179
aI180
aI181
aI182
aa(lp11
I2
aI3
aI6
aI10
aI13
aI21
aI22
aI24
aI27
aI28
aI29
aI30
aI31
aI32
aI33
aI34
aI35
aI36
aI37
aI38
aI39
aI40
aI41
aI42
aI43
aI44
aI45
aI46
aI47
aI48
aI49
aI50
aI51
aI52
aI53
aI54
aI55
aI56
aI57
aI58
aI59
aI60
aI61
aI62
aI63
aI64
aI65
aI66
aI67
aI68
aI69
aI70
aI71
aI72
aI73
aI74
aI75
aI76
aI77
aI78
aI79
aI80
aI81
aI82
aI83
aI84
aI85
aI86
aI87
aI88
aI89
aI90
aI91
aI92
aI93
aI94
aI95
aI96
aI97
aI98
aI99
aI100
aI101
aI102
aI103
aI104
aI105
aI106
aI107
aI108
aI109
aI110
aI111
aI112
aI113
aI114
aI115
aI116
aI117
aI118
aI119
aI120
aI121
aI122
aI123
aI124
aI125
aI126
aI127
aI128
aI129
aI130
aI131
aI132
aI133
aI134
aI135
aI136
aI137
aI138
aI139
aI140
aI141
aI142
aI143
aI144
aI145
aI146
aI147
aI148
aI149
aI150
aI151
aI152
aI153
aI154
aI155
aI156
aI157
aI158
aI159
aI160
aI161
aI162
aI163
aI164
aI165
aI166
aI167
aI168
aI169
aI170
aI171
aI172
aI173
aI174
aI175
aI176
aI177
aI178
aI179
aI180
aI181
aI182
aa(lp12
I27
aI28
aI29
aI30
aI31
aI32
aI33
aI34
aI35
aI36
aI37
aI38
aI39
aI40
aI41
aI42
aI43
aI44
aI45
aI46
aI47
aI48
aI49
aI50
aI51
aI53
aI54
aI55
aI56
aI57
aI58
aI59
aI60
aI61
aI62
aI63
aI64
aI66
aI67
aI68
aI70
aI71
aI72
aI73
aI74
aI75
aI76
aI77
aI78
aI79
aI80
aI83
aI84
aI85
aI86
aI87
aI88
aI89
aI90
aI91
aI92
aI94
aI95
aI96
aI97
aI98
aI99
aI100
aI101
aI102
aI103
aI104
aI105
aI106
aI107
aI108
aI109
aI110
aI111
aI112
aI113
aI114
aI115
aI116
aI117
aI118
aI119
aI121
aI122
aI123
aI124
aI125
aI126
aI127
aI128
aI129
aI130
aI131
aI132
aI133
aI134
aI135
aI136
aI137
aI138
aI139
aI140
aI142
aI143
aI144
aI145
aI146
aI147
aI148
aI149
aI150
aI151
aI152
aI153
aI154
aI155
aI156
aI157
aI158
aI160
aI161
aI162
aI163
aI164
aI165
aI167
aI168
aI169
aI170
aI171
aI172
aI173
aI174
aI175
aI176
aI177
aI178
aI179
aI180
aI181
aI182
aa(lp13
I25
aI26
aI28
aI29
aI30
aI31
aI32
aI33
aI34
aI35
aI36
aI37
aI38
aI39
aI40
aI41
aI42
aI43
aI44
aI45
aI46
aI47
aI48
aI49
aI50
aI51
aI52
aI53
aI54
aI55
aI56
aI57
aI58
aI59
aI60
aI61
aI62
aI63
aI64
aI65
aI66
aI67
aI68
aI69
aI70
aI71
aI72
aI73
aI74
aI75
aI76
aI77
aI78
aI79
aI80
aI81
aI82
aI83
aI84
aI85
aI86
aI87
aI88
aI89
aI90
aI91
aI92
aI93
aI94
aI95
aI96
aI97
aI98
aI99
aI100
aI101
aI102
aI104
aI105
aI106
aI107
aI108
aI109
aI110
aI111
aI112
aI113
aI115
aI116
aI117
aI118
aI119
aI120
aI121
aI122
aI123
aI124
aI125
aI126
aI127
aI128
aI129
aI130
aI131
aI132
aI133
aI134
aI135
aI136
aI137
aI138
aI139
aI140
aI141
aI142
aI143
aI144
aI145
aI146
aI147
aI148
aI149
aI150
aI151
aI152
aI153
aI154
aI155
aI156
aI157
aI158
aI159
aI160
aI161
aI162
aI163
aI164
aI165
aI166
aI167
aI168
aI169
aI170
aI171
aI172
aI173
aI174
aI175
aI176
aI177
aI178
aI179
aI180
aI181
aI182
aa(lp14
I3
aI31
aI35
aI36
aI50
aI55
aI59
aI66
aI68
aI70
aI74
aI76
aI81
aI83
aI87
aI91
aI93
aI94
aI96
aI102
aI104
aI105
aI108
aI115
aI121
aI125
aI126
aI140
aI142
aI143
aI144
aI146
aI149
aI151
aI153
aI156
aI157
aI159
aI161
aI164
aI171
aI173
aI178
aI180
aI181
aa(lp15
I19
aI42
aI43
aI46
aI48
aI55
aI56
aI62
aI67
aI68
aI69
aI72
aI73
aI74
aI75
aI77
aI78
aI79
aI81
aI82
aI88
aI92
aI97
aI98
aI105
aI106
aI108
aI115
aI116
aI117
aI119
aI120
aI123
aI124
aI125
aI128
aI131
aI137
aI144
aI147
aI148
aI149
aI150
aI152
aI156
aI157
aI158
aI160
aI161
aI163
aI164
aI165
aI167
aI173
aI174
aI175
aI176
aI180
aI182
aa(lp16
I0
aI1
aI3
aI4
aI5
aI7
aI8
aI9
aI10
aI11
aI12
aI13
aI14
aI15
aI16
aI17
aI20
aI21
aI22
aI23
aI24
aI26
aI27
aI28
aI29
aI30
aI31
aI32
aI33
aI34
aI35
aI36
aI37
aI38
aI39
aI40
aI41
aI42
aI43
aI44
aI45
aI46
aI47
aI48
aI49
aI50
aI51
aI52
aI53
aI54
aI55
aI56
aI57
aI58
aI59
aI60
aI61
aI62
aI63
aI64
aI65
aI66
aI67
aI68
aI69
aI70
aI71
aI72
aI73
aI74
aI75
aI76
aI77
aI78
aI79
aI80
aI81
aI82
aI83
aI84
aI85
aI86
aI87
aI88
aI89
aI90
aI91
aI92
aI93
aI94
aI95
aI96
aI97
aI98
aI99
aI100
aI101
aI102
aI103
aI104
aI105
aI106
aI107
aI108
aI109
aI110
aI111
aI112
aI113
aI114
aI115
aI116
aI117
aI118
aI119
aI120
aI121
aI122
aI123
aI124
aI125
aI126
aI127
aI128
aI129
aI130
aI131
aI132
aI133
aI134
aI135
aI136
aI137
aI138
aI139
aI140
aI141
aI142
aI143
aI144
aI145
aI146
aI147
aI148
aI149
aI150
aI151
aI152
aI153
aI154
aI155
aI156
aI157
aI158
aI159
aI160
aI161
aI162
aI163
aI164
aI165
aI166
aI167
aI168
aI169
aI170
aI171
aI172
aI173
aI174
aI175
aI176
aI177
aI178
aI179
aI180
aI181
aI182
aa(lp17
I0
aI3
aI4
aI5
aI7
aI10
aI12
aI13
aI14
aI17
aI18
aI19
aI20
aI21
aI24
aI25
aI26
aI27
aI28
aI29
aI30
aI31
aI32
aI33
aI34
aI35
aI36
aI37
aI38
aI39
aI40
aI41
aI42
aI43
aI44
aI45
aI46
aI47
aI48
aI49
aI50
aI51
aI52
aI53
aI54
aI55
aI56
aI57
aI58
aI59
aI60
aI61
aI62
aI63
aI64
aI65
aI66
aI68
aI69
aI70
aI71
aI72
aI73
aI74
aI75
aI76
aI77
aI78
aI79
aI80
aI81
aI82
aI83
aI84
aI85
aI86
aI87
aI88
aI89
aI90
aI91
aI92
aI94
aI95
aI96
aI97
aI98
aI99
aI100
aI101
aI102
aI103
aI104
aI105
aI106
aI107
aI108
aI109
aI110
aI111
aI112
aI113
aI114
aI115
aI116
aI117
aI118
aI119
aI120
aI121
aI122
aI123
aI124
aI125
aI126
aI127
aI128
aI129
aI130
aI131
aI132
aI133
aI134
aI135
aI136
aI137
aI138
aI139
aI140
aI141
aI142
aI143
aI144
aI145
aI146
aI147
aI148
aI149
aI150
aI151
aI152
aI153
aI154
aI155
aI156
aI157
aI158
aI159
aI160
aI161
aI162
aI163
aI164
aI165
aI166
aI167
aI168
aI169
aI170
aI171
aI172
aI173
aI174
aI175
aI176
aI177
aI178
aI179
aI180
aI181
aI182
aa(lp18
I8
aI10
aI12
aI13
aI20
aI26
aI28
aI30
aI31
aI32
aI33
aI34
aI35
aI36
aI37
aI38
aI39
aI40
aI41
aI42
aI43
aI44
aI45
aI46
aI47
aI48
aI49
aI51
aI52
aI53
aI54
aI55
aI56
aI57
aI58
aI59
aI60
aI61
aI62
aI63
aI64
aI65
aI66
aI67
aI68
aI69
aI70
aI71
aI72
aI74
aI76
aI77
aI78
aI80
aI81
aI82
aI83
aI84
aI85
aI86
aI87
aI88
aI89
aI90
aI91
aI92
aI93
aI94
aI95
aI96
aI97
aI98
aI99
aI101
aI102
aI103
aI104
aI106
aI107
aI108
aI109
aI110
aI111
aI112
aI114
aI115
aI116
aI117
aI118
aI119
aI120
aI121
aI122
aI123
aI124
aI126
aI127
aI128
aI129
aI130
aI131
aI132
aI133
aI134
aI135
aI136
aI137
aI138
aI139
aI140
aI141
aI142
aI143
aI144
aI145
aI146
aI147
aI148
aI149
aI150
aI151
aI152
aI153
aI154
aI155
aI156
aI157
aI158
aI159
aI161
aI162
aI163
aI164
aI165
aI166
aI167
aI168
aI169
aI170
aI171
aI172
aI173
aI175
aI176
aI178
aI179
aI180
aI181
aI182
aa(lp19
I1
aI3
aI4
aI12
aI13
aI14
aI16
aI22
aI23
aI24
aI26
aI27
aI28
aI29
aI30
aI31
aI32
aI33
aI34
aI35
aI36
aI37
aI38
aI39
aI40
aI41
aI42
aI43
aI44
aI45
aI46
aI47
aI48
aI49
aI50
aI51
aI52
aI53
aI54
aI55
aI56
aI57
aI58
aI59
aI60
aI61
aI62
aI63
aI64
aI65
aI66
aI67
aI68
aI69
aI70
aI71
aI72
aI73
aI74
aI75
aI76
aI77
aI78
aI79
aI80
aI81
aI82
aI83
aI84
aI85
aI86
aI87
aI88
aI89
aI90
aI91
aI92
aI93
aI94
aI95
aI96
aI97
aI98
aI99
aI100
aI101
aI102
aI103
aI104
aI105
aI106
aI107
aI108
aI109
aI110
aI111
aI112
aI113
aI114
aI115
aI116
aI117
aI118
aI119
aI120
aI121
aI122
aI123
aI124
aI125
aI126
aI127
aI128
aI129
aI130
aI131
aI132
aI133
aI134
aI135
aI136
aI137
aI138
aI139
aI140
aI141
aI142
aI143
aI144
aI145
aI146
aI147
aI148
aI149
aI150
aI151
aI152
aI153
aI154
aI155
aI156
aI157
aI158
aI159
aI160
aI161
aI162
aI163
aI164
aI165
aI166
aI167
aI168
aI169
aI170
aI171
aI172
aI173
aI174
aI175
aI176
aI177
aI178
aI179
aI180
aI181
aI182
aa(lp20
I3
aI5
aI21
aI23
aI25
aI27
aI28
aI29
aI30
aI31
aI32
aI33
aI34
aI35
aI36
aI37
aI38
aI39
aI40
aI41
aI42
aI43
aI44
aI45
aI46
aI47
aI48
aI49
aI50
aI51
aI52
aI53
aI54
aI55
aI56
aI57
aI58
aI59
aI60
aI61
aI62
aI63
aI64
aI65
aI66
aI67
aI68
aI69
aI70
aI71
aI72
aI73
aI74
aI75
aI76
aI77
aI78
aI79
aI80
aI81
aI82
aI83
aI84
aI85
aI86
aI87
aI88
aI89
aI90
aI91
aI92
aI93
aI94
aI95
aI96
aI97
aI98
aI99
aI100
aI101
aI102
aI103
aI104
aI105
aI106
aI107
aI108
aI109
aI110
aI111
aI112
aI113
aI114
aI115
aI116
aI117
aI118
aI119
aI120
aI121
aI122
aI123
aI124
aI125
aI126
aI127
aI128
aI129
aI130
aI131
aI132
aI133
aI134
aI135
aI136
aI137
aI138
aI139
aI140
aI141
aI142
aI143
aI144
aI145
aI146
aI147
aI148
aI149
aI150
aI151
aI152
aI153
aI154
aI155
aI156
aI157
aI158
aI159
aI160
aI161
aI162
aI163
aI164
aI165
aI166
aI167
aI168
aI169
aI170
aI171
aI172
aI173
aI174
aI175
aI176
aI177
aI178
aI179
aI180
aI181
aI182
aa(lp21
I0
aI1
aI2
aI5
aI6
aI7
aI8
aI10
aI12
aI13
aI14
aI15
aI16
aI20
aI22
aI23
aI27
aI28
aI29
aI30
aI31
aI32
aI33
aI34
aI35
aI36
aI37
aI38
aI39
aI40
aI41
aI42
aI43
aI44
aI45
aI46
aI47
aI48
aI49
aI50
aI51
aI52
aI53
aI54
aI55
aI56
aI57
aI58
aI59
aI60
aI61
aI62
aI63
aI64
aI65
aI66
aI67
aI68
aI69
aI70
aI71
aI72
aI73
aI74
aI75
aI76
aI77
aI78
aI79
aI80
aI81
aI82
aI83
aI84
aI85
aI86
aI87
aI88
aI89
aI90
aI91
aI92
aI93
aI94
aI95
aI96
aI97
aI98
aI99
aI100
aI101
aI102
aI103
aI104
aI105
aI106
aI107
aI108
aI109
aI110
aI111
aI112
aI113
aI114
aI115
aI116
aI117
aI118
aI119
aI120
aI121
aI122
aI123
aI124
aI125
aI126
aI127
aI128
aI129
aI130
aI131
aI132
aI133
aI134
aI135
aI136
aI137
aI138
aI139
aI140
aI141
aI142
aI143
aI144
aI145
aI146
aI147
aI148
aI149
aI150
aI151
aI152
aI153
aI154
aI155
aI156
aI157
aI158
aI159
aI160
aI161
aI162
aI163
aI164
aI165
aI166
aI167
aI168
aI169
aI170
aI171
aI172
aI173
aI174
aI175
aI176
aI177
aI178
aI179
aI180
aI181
aI182
aa(lp22
I30
aI37
aI44
aI53
aI54
aI60
aI61
aI66
aI67
aI70
aI76
aI78
aI83
aI93
aI94
aI96
aI98
aI99
aI101
aI103
aI107
aI111
aI113
aI118
aI119
aI122
aI123
aI126
aI128
aI135
aI136
aI137
aI139
aI142
aI154
aI155
aI157
aI159
aI160
aI161
aI163
aI164
aI165
aI169
aI171
aI172
aI173
aI175
aI177
aa(lp23
I3
aI4
aI21
aI22
aI27
aI28
aI29
aI30
aI31
aI32
aI33
aI34
aI35
aI36
aI37
aI38
aI39
aI40
aI41
aI42
aI43
aI44
aI45
aI46
aI47
aI48
aI49
aI50
aI51
aI52
aI53
aI54
aI55
aI56
aI57
aI58
aI59
aI60
aI61
aI62
aI63
aI64
aI65
aI66
aI67
aI68
aI69
aI70
aI71
aI72
aI73
aI74
aI75
aI76
aI77
aI78
aI79
aI80
aI81
aI82
aI83
aI84
aI85
aI86
aI87
aI88
aI89
aI90
aI91
aI92
aI93
aI94
aI95
aI96
aI97
aI98
aI99
aI100
aI101
aI102
aI103
aI104
aI105
aI106
aI107
aI108
aI109
aI110
aI111
aI112
aI113
aI114
aI115
aI116
aI117
aI118
aI119
aI120
aI121
aI122
aI123
aI124
aI125
aI126
aI127
aI128
aI129
aI130
aI131
aI132
aI133
aI134
aI135
aI136
aI137
aI138
aI139
aI140
aI141
aI142
aI143
aI144
aI145
aI146
aI147
aI148
aI149
aI150
aI151
aI152
aI153
aI154
aI155
aI156
aI157
aI158
aI159
aI160
aI161
aI162
aI163
aI164
aI165
aI166
aI167
aI168
aI169
aI170
aI171
aI172
aI173
aI174
aI175
aI176
aI177
aI178
aI179
aI180
aI181
aI182
aa(lp24
I3
aI13
aI22
aI29
aI31
aI32
aI33
aI35
aI36
aI37
aI39
aI40
aI41
aI42
aI43
aI44
aI45
aI47
aI48
aI49
aI50
aI52
aI53
aI54
aI55
aI56
aI57
aI58
aI59
aI60
aI61
aI63
aI66
aI68
aI69
aI70
aI71
aI72
aI73
aI74
aI76
aI77
aI78
aI79
aI80
aI81
aI82
aI84
aI85
aI86
aI87
aI89
aI90
aI91
aI92
aI93
aI95
aI96
aI97
aI98
aI99
aI100
aI102
aI103
aI104
aI106
aI107
aI108
aI110
aI111
aI112
aI113
aI115
aI116
aI117
aI118
aI119
aI121
aI122
aI123
aI124
aI125
aI126
aI127
aI128
aI129
aI130
aI131
aI132
aI133
aI134
aI135
aI136
aI137
aI138
aI139
aI140
aI141
aI142
aI143
aI144
aI145
aI146
aI147
aI150
aI152
aI153
aI154
aI155
aI157
aI158
aI159
aI160
aI161
aI162
aI163
aI164
aI165
aI166
aI167
aI168
aI169
aI170
aI171
aI172
aI173
aI174
aI175
aI176
aI177
aI178
aI179
aI180
aI181
aI182
aa(lp25
I3
aI4
aI5
aI6
aI7
aI9
aI10
aI12
aI19
aI21
aI23
aI24
aI25
aI27
aI28
aI29
aI30
aI31
aI32
aI33
aI34
aI35
aI36
aI37
aI38
aI39
aI40
aI41
aI42
aI43
aI44
aI45
aI46
aI47
aI48
aI49
aI50
aI51
aI52
aI53
aI54
aI55
aI56
aI57
aI58
aI59
aI60
aI61
aI62
aI63
aI64
aI65
aI66
aI67
aI68
aI69
aI70
aI71
aI72
aI73
aI74
aI75
aI76
aI77
aI78
aI79
aI80
aI81
aI82
aI83
aI84
aI85
aI86
aI87
aI88
aI89
aI90
aI91
aI92
aI93
aI94
aI95
aI96
aI97
aI98
aI99
aI100
aI101
aI102
aI103
aI104
aI105
aI106
aI107
aI108
aI109
aI110
aI111
aI112
aI113
aI114
aI115
aI116
aI117
aI118
aI119
aI120
aI121
aI122
aI123
aI124
aI125
aI126
aI127
aI128
aI129
aI130
aI131
aI132
aI133
aI134
aI135
aI136
aI137
aI138
aI139
aI140
aI141
aI142
aI143
aI144
aI145
aI146
aI147
aI148
aI149
aI150
aI151
aI152
aI153
aI154
aI155
aI156
aI157
aI158
aI159
aI160
aI161
aI162
aI163
aI164
aI165
aI166
aI167
aI168
aI169
aI170
aI171
aI172
aI173
aI174
aI175
aI176
aI177
aI178
aI179
aI180
aI181
aI182
aa(lp26
I3
aI29
aI31
aI32
aI34
aI35
aI39
aI42
aI43
aI44
aI45
aI46
aI47
aI48
aI49
aI51
aI52
aI53
aI54
aI55
aI57
aI58
aI59
aI61
aI62
aI64
aI65
aI66
aI67
aI68
aI69
aI70
aI71
aI72
aI73
aI75
aI76
aI77
aI78
aI79
aI80
aI82
aI84
aI85
aI86
aI87
aI88
aI94
aI95
aI97
aI98
aI99
aI100
aI101
aI104
aI105
aI106
aI107
aI108
aI110
aI111
aI112
aI113
aI114
aI115
aI116
aI117
aI118
aI119
aI122
aI123
aI124
aI125
aI126
aI127
aI128
aI129
aI130
aI133
aI134
aI135
aI138
aI139
aI141
aI143
aI144
aI145
aI147
aI148
aI149
aI150
aI151
aI152
aI153
aI156
aI157
aI158
aI159
aI160
aI161
aI162
aI163
aI164
aI165
aI166
aI167
aI168
aI169
aI170
aI171
aI172
aI173
aI174
aI175
aI176
aI177
aI178
aI179
aI180
aI181
aI182
aa(lp27
I1
aI9
aI16
aI23
aI30
aI31
aI32
aI33
aI36
aI38
aI40
aI41
aI43
aI44
aI45
aI47
aI48
aI49
aI51
aI52
aI53
aI54
aI56
aI57
aI58
aI59
aI61
aI62
aI64
aI65
aI67
aI68
aI69
aI70
aI71
aI73
aI74
aI80
aI81
aI82
aI83
aI84
aI85
aI86
aI87
aI89
aI90
aI91
aI93
aI94
aI95
aI96
aI97
aI98
aI99
aI100
aI102
aI103
aI104
aI105
aI106
aI108
aI109
aI110
aI111
aI112
aI114
aI115
aI116
aI117
aI118
aI119
aI120
aI121
aI122
aI123
aI124
aI125
aI126
aI127
aI128
aI129
aI130
aI131
aI132
aI133
aI134
aI136
aI137
aI138
aI139
aI140
aI141
aI143
aI144
aI145
aI146
aI147
aI148
aI149
aI150
aI151
aI152
aI153
aI154
aI155
aI156
aI157
aI158
aI159
aI160
aI161
aI162
aI163
aI164
aI165
aI166
aI167
aI168
aI169
aI170
aI171
aI172
aI173
aI174
aI175
aI176
aI177
aI178
aI179
aI180
aI181
aI182
aa(lp28
I0
aI4
aI6
aI10
aI13
aI15
aI20
aI21
aI22
aI23
aI24
aI25
aI26
aI28
aI29
aI30
aI31
aI32
aI33
aI34
aI35
aI36
aI37
aI38
aI39
aI40
aI41
aI42
aI43
aI44
aI45
aI46
aI47
aI48
aI49
aI50
aI51
aI52
aI53
aI54
aI55
aI56
aI57
aI58
aI59
aI60
aI61
aI62
aI63
aI64
aI65
aI66
aI67
aI68
aI69
aI70
aI71
aI72
aI73
aI75
aI76
aI77
aI78
aI79
aI80
aI81
aI82
aI83
aI84
aI85
aI86
aI87
aI88
aI89
aI90
aI91
aI92
aI93
aI94
aI95
aI96
aI97
aI98
aI99
aI100
aI101
aI102
aI103
aI104
aI105
aI106
aI107
aI108
aI109
aI110
aI111
aI112
aI113
aI114
aI115
aI116
aI117
aI118
aI119
aI120
aI122
aI123
aI124
aI125
aI126
aI127
aI128
aI129
aI130
aI131
aI132
aI133
aI134
aI135
aI136
aI137
aI138
aI139
aI140
aI141
aI142
aI144
aI145
aI146
aI147
aI148
aI149
aI150
aI151
aI152
aI153
aI154
aI155
aI156
aI157
aI158
aI159
aI160
aI161
aI162
aI163
aI164
aI165
aI166
aI167
aI168
aI169
aI170
aI171
aI172
aI173
aI174
aI175
aI176
aI177
aI178
aI179
aI180
aI181
aI182
aa(lp29
I15
aI31
aI32
aI37
aI38
aI39
aI41
aI42
aI44
aI46
aI47
aI48
aI49
aI50
aI51
aI53
aI54
aI56
aI57
aI58
aI59
aI61
aI62
aI65
aI66
aI69
aI70
aI76
aI78
aI81
aI82
aI83
aI84
aI85
aI86
aI88
aI91
aI94
aI96
aI98
aI100
aI101
aI102
aI103
aI104
aI105
aI106
aI112
aI113
aI115
aI117
aI118
aI119
aI126
aI127
aI129
aI133
aI135
aI138
aI143
aI144
aI146
aI150
aI154
aI157
aI159
aI160
aI161
aI162
aI163
aI165
aI166
aI168
aI169
aI170
aI171
aI173
aI174
aI176
aI178
aI181
aI182
aa(lp30
I4
aI7
aI10
aI11
aI17
aI20
aI21
aI26
aI27
aI28
aI29
aI30
aI31
aI32
aI33
aI34
aI35
aI36
aI37
aI38
aI39
aI40
aI41
aI42
aI43
aI44
aI45
aI46
aI47
aI48
aI49
aI50
aI51
aI52
aI53
aI54
aI55
aI56
aI57
aI58
aI59
aI60
aI61
aI62
aI63
aI64
aI65
aI66
aI67
aI68
aI69
aI70
aI71
aI72
aI73
aI74
aI75
aI76
aI77
aI78
aI79
aI80
aI81
aI82
aI83
aI84
aI85
aI86
aI87
aI88
aI89
aI90
aI91
aI92
aI93
aI94
aI95
aI96
aI97
aI98
aI99
aI100
aI101
aI102
aI103
aI104
aI105
aI106
aI107
aI108
aI109
aI110
aI111
aI112
aI113
aI114
aI115
aI116
aI117
aI118
aI119
aI120
aI121
aI122
aI123
aI124
aI125
aI126
aI127
aI128
aI129
aI130
aI131
aI132
aI134
aI135
aI136
aI137
aI138
aI139
aI140
aI141
aI142
aI143
aI144
aI145
aI146
aI147
aI148
aI149
aI150
aI151
aI152
aI153
aI154
aI155
aI156
aI157
aI158
aI159
aI160
aI161
aI162
aI163
aI164
aI165
aI166
aI167
aI168
aI169
aI170
aI171
aI172
aI173
aI174
aI175
aI176
aI177
aI178
aI179
aI180
aI181
aI182
aa(lp31
I12
aI13
aI16
aI17
aI25
aI27
aI28
aI29
aI30
aI31
aI32
aI33
aI35
aI36
aI37
aI38
aI39
aI40
aI41
aI42
aI43
aI44
aI45
aI46
aI47
aI48
aI49
aI50
aI51
aI52
aI53
aI54
aI55
aI56
aI57
aI58
aI59
aI60
aI61
aI62
aI63
aI64
aI65
aI66
aI67
aI68
aI69
aI70
aI71
aI72
aI73
aI74
aI75
aI76
aI77
aI78
aI79
aI80
aI81
aI82
aI83
aI84
aI85
aI86
aI87
aI88
aI89
aI90
aI91
aI93
aI94
aI95
aI96
aI97
aI98
aI99
aI100
aI101
aI102
aI103
aI104
aI105
aI106
aI107
aI108
aI109
aI110
aI111
aI112
aI113
aI114
aI115
aI116
aI117
aI118
aI119
aI120
aI121
aI122
aI123
aI124
aI125
aI126
aI127
aI128
aI129
aI130
aI132
aI133
aI134
aI135
aI136
aI137
aI138
aI139
aI140
aI141
aI142
aI143
aI144
aI145
aI146
aI147
aI148
aI149
aI150
aI151
aI152
aI153
aI154
aI155
aI156
aI157
aI158
aI159
aI160
aI161
aI162
aI163
aI164
aI165
aI166
aI167
aI168
aI169
aI170
aI171
aI172
aI173
aI174
aI175
aI176
aI177
aI178
aI179
aI180
aI181
aI182
aa(lp32
I1
aI4
aI6
aI7
aI8
aI11
aI13
aI14
aI16
aI18
aI19
aI20
aI21
aI23
aI24
aI25
aI26
aI27
aI28
aI29
aI30
aI31
aI32
aI33
aI34
aI35
aI36
aI37
aI38
aI39
aI40
aI41
aI42
aI43
aI44
aI45
aI46
aI47
aI48
aI49
aI50
aI51
aI52
aI53
aI54
aI55
aI56
aI57
aI58
aI59
aI60
aI61
aI62
aI63
aI64
aI65
aI66
aI67
aI68
aI69
aI70
aI71
aI72
aI73
aI74
aI75
aI76
aI77
aI78
aI79
aI80
aI81
aI82
aI83
aI84
aI85
aI86
aI87
aI88
aI89
aI90
aI91
aI92
aI93
aI94
aI95
aI96
aI97
aI98
aI99
aI100
aI101
aI102
aI103
aI104
aI105
aI106
aI107
aI108
aI109
aI110
aI111
aI112
aI113
aI114
aI115
aI116
aI117
aI118
aI119
aI120
aI121
aI122
aI123
aI124
aI125
aI126
aI127
aI128
aI129
aI130
aI131
aI132
aI133
aI134
aI135
aI136
aI137
aI138
aI139
aI140
aI141
aI142
aI143
aI144
aI145
aI146
aI147
aI148
aI149
aI150
aI151
aI152
aI153
aI154
aI155
aI156
aI157
aI158
aI159
aI160
aI161
aI162
aI163
aI164
aI165
aI166
aI167
aI168
aI169
aI170
aI171
aI172
aI173
aI174
aI175
aI176
aI177
aI178
aI179
aI180
aI181
aI182
aa(lp33
I17
aI21
aI24
aI29
aI30
aI31
aI32
aI33
aI34
aI36
aI39
aI40
aI41
aI42
aI43
aI44
aI45
aI46
aI47
aI48
aI49
aI51
aI52
aI54
aI55
aI56
aI57
aI58
aI61
aI62
aI64
aI65
aI66
aI67
aI71
aI74
aI75
aI76
aI77
aI81
aI82
aI83
aI85
aI86
aI87
aI88
aI89
aI90
aI91
aI92
aI93
aI95
aI97
aI98
aI99
aI100
aI101
aI102
aI103
aI104
aI105
aI106
aI108
aI109
aI110
aI111
aI112
aI113
aI114
aI115
aI116
aI117
aI118
aI119
aI120
aI121
aI122
aI123
aI124
aI126
aI127
aI128
aI129
aI130
aI131
aI132
aI133
aI134
aI135
aI136
aI137
aI139
aI140
aI141
aI142
aI143
aI146
aI147
aI148
aI149
aI150
aI151
aI152
aI153
aI154
aI155
aI156
aI159
aI160
aI162
aI163
aI164
aI165
aI166
aI168
aI169
aI170
aI171
aI172
aI173
aI174
aI175
aI176
aI177
aI178
aI179
aI181
aI182
aa(lp34
I2
aI12
aI14
aI16
aI21
aI22
aI23
aI24
aI26
aI27
aI28
aI29
aI30
aI31
aI32
aI33
aI34
aI35
aI36
aI37
aI38
aI39
aI40
aI41
aI42
aI43
aI44
aI45
aI46
aI47
aI48
aI49
aI50
aI51
aI52
aI53
aI54
aI55
aI56
aI57
aI58
aI59
aI60
aI61
aI62
aI63
aI64
aI65
aI66
aI68
aI69
aI70
aI71
aI72
aI73
aI74
aI75
aI76
aI77
aI78
aI79
aI80
aI81
aI82
aI83
aI85
aI86
aI87
aI88
aI89
aI90
aI91
aI92
aI93
aI94
aI95
aI96
aI97
aI98
aI99
aI100
aI101
aI102
aI103
aI104
aI105
aI106
aI107
aI108
aI109
aI111
aI112
aI113
aI114
aI115
aI116
aI117
aI118
aI119
aI120
aI121
aI122
aI123
aI124
aI125
aI126
aI127
aI128
aI129
aI130
aI131
aI132
aI133
aI134
aI135
aI136
aI137
aI138
aI139
aI140
aI141
aI142
aI143
aI144
aI145
aI146
aI147
aI148
aI150
aI151
aI152
aI153
aI154
aI155
aI156
aI157
aI158
aI159
aI160
aI161
aI162
aI163
aI164
aI165
aI166
aI167
aI168
aI169
aI170
aI171
aI172
aI173
aI174
aI175
aI176
aI177
aI178
aI179
aI180
aI181
aI182
aa(lp35
I33
aI40
aI41
aI45
aI53
aI64
aI73
aI136
aI173
aa(lp36
I2
aI5
aI12
aI14
aI16
aI24
aI26
aI27
aI29
aI31
aI32
aI33
aI35
aI36
aI37
aI38
aI41
aI42
aI43
aI44
aI45
aI46
aI47
aI48
aI49
aI50
aI51
aI52
aI53
aI54
aI55
aI56
aI57
aI58
aI59
aI61
aI62
aI63
aI64
aI65
aI66
aI67
aI68
aI69
aI70
aI71
aI72
aI73
aI74
aI75
aI76
aI77
aI78
aI79
aI80
aI81
aI82
aI83
aI84
aI85
aI86
aI87
aI89
aI90
aI91
aI92
aI93
aI94
aI95
aI96
aI97
aI98
aI99
aI100
aI101
aI102
aI103
aI104
aI105
aI106
aI107
aI108
aI109
aI110
aI111
aI112
aI113
aI114
aI116
aI117
aI118
aI119
aI120
aI121
aI122
aI123
aI125
aI126
aI127
aI128
aI129
aI130
aI131
aI132
aI133
aI134
aI135
aI136
aI137
aI138
aI139
aI140
aI141
aI142
aI143
aI144
aI145
aI146
aI147
aI148
aI149
aI150
aI151
aI152
aI153
aI154
aI155
aI156
aI157
aI158
aI159
aI160
aI161
aI162
aI163
aI164
aI165
aI166
aI167
aI168
aI169
aI170
aI171
aI172
aI173
aI174
aI175
aI176
aI177
aI178
aI179
aI180
aI181
aI182
aa(lp37
I0
aI1
aI3
aI17
aI20
aI26
aI27
aI30
aI33
aI34
aI35
aI36
aI37
aI38
aI39
aI40
aI41
aI42
aI43
aI45
aI46
aI48
aI49
aI50
aI54
aI55
aI56
aI57
aI58
aI59
aI61
aI62
aI63
aI64
aI65
aI66
aI67
aI68
aI69
aI70
aI72
aI73
aI74
aI75
aI76
aI77
aI78
aI80
aI81
aI82
aI83
aI84
aI85
aI86
aI87
aI88
aI89
aI90
aI91
aI92
aI93
aI94
aI95
aI96
aI97
aI98
aI100
aI102
aI103
aI104
aI105
aI106
aI107
aI108
aI109
aI110
aI111
aI112
aI113
aI114
aI115
aI116
aI118
aI119
aI120
aI121
aI122
aI123
aI124
aI125
aI126
aI127
aI128
aI129
aI130
aI132
aI133
aI134
aI135
aI136
aI137
aI138
aI139
aI141
aI142
aI143
aI144
aI145
aI146
aI147
aI148
aI149
aI150
aI151
aI152
aI153
aI154
aI155
aI156
aI157
aI158
aI160
aI161
aI162
aI163
aI164
aI165
aI166
aI167
aI168
aI169
aI170
aI171
aI172
aI174
aI175
aI176
aI177
aI178
aI179
aI180
aI181
aI182
aa(lp38
I1
aI4
aI8
aI11
aI12
aI14
aI19
aI24
aI25
aI27
aI28
aI29
aI30
aI31
aI32
aI33
aI34
aI35
aI36
aI37
aI38
aI39
aI40
aI41
aI42
aI43
aI44
aI45
aI46
aI47
aI48
aI49
aI50
aI51
aI52
aI53
aI54
aI55
aI56
aI57
aI58
aI59
aI60
aI61
aI62
aI64
aI65
aI66
aI67
aI68
aI69
aI70
aI71
aI72
aI73
aI74
aI75
aI76
aI77
aI78
aI79
aI80
aI81
aI82
aI83
aI84
aI85
aI86
aI87
aI88
aI89
aI90
aI91
aI92
aI93
aI94
aI95
aI96
aI97
aI98
aI99
aI100
aI101
aI102
aI103
aI104
aI105
aI106
aI107
aI108
aI109
aI110
aI111
aI112
aI113
aI114
aI115
aI116
aI117
aI118
aI119
aI120
aI121
aI122
aI123
aI124
aI125
aI126
aI127
aI128
aI129
aI130
aI131
aI132
aI133
aI134
aI135
aI136
aI137
aI138
aI139
aI140
aI141
aI142
aI143
aI144
aI145
aI146
aI147
aI148
aI149
aI150
aI151
aI152
aI153
aI154
aI155
aI156
aI157
aI158
aI159
aI160
aI161
aI162
aI163
aI164
aI165
aI166
aI167
aI168
aI169
aI170
aI171
aI172
aI173
aI174
aI175
aI176
aI177
aI178
aI179
aI180
aI181
aI182
aa(lp39
I6
aI8
aI9
aI10
aI14
aI16
aI18
aI19
aI23
aI24
aI26
aI27
aI29
aI30
aI31
aI32
aI33
aI34
aI35
aI36
aI37
aI38
aI39
aI40
aI41
aI42
aI43
aI44
aI45
aI46
aI47
aI48
aI49
aI50
aI51
aI52
aI53
aI54
aI55
aI56
aI57
aI58
aI59
aI60
aI61
aI62
aI63
aI64
aI65
aI66
aI67
aI68
aI69
aI70
aI71
aI72
aI73
aI74
aI75
aI76
aI77
aI78
aI79
aI80
aI81
aI82
aI83
aI84
aI85
aI86
aI87
aI88
aI89
aI90
aI91
aI92
aI93
aI94
aI95
aI96
aI97
aI98
aI99
aI100
aI101
aI102
aI103
aI104
aI105
aI106
aI107
aI108
aI109
aI110
aI111
aI112
aI113
aI114
aI115
aI116
aI117
aI118
aI119
aI120
aI121
aI122
aI123
aI124
aI125
aI126
aI127
aI128
aI129
aI130
aI131
aI132
aI133
aI134
aI135
aI136
aI137
aI138
aI139
aI140
aI141
aI142
aI143
aI144
aI145
aI146
aI147
aI148
aI149
aI150
aI151
aI152
aI153
aI154
aI155
aI156
aI157
aI158
aI159
aI160
aI161
aI162
aI163
aI164
aI165
aI166
aI167
aI168
aI169
aI170
aI171
aI172
aI173
aI174
aI175
aI176
aI177
aI178
aI179
aI180
aI181
aI182
aa(lp40
I2
aI13
aI33
aI37
aI38
aI40
aI41
aI42
aI43
aI44
aI45
aI48
aI50
aI51
aI52
aI53
aI54
aI55
aI56
aI57
aI58
aI59
aI61
aI63
aI65
aI66
aI67
aI68
aI70
aI71
aI72
aI73
aI74
aI75
aI77
aI79
aI81
aI83
aI84
aI88
aI89
aI92
aI94
aI97
aI101
aI102
aI103
aI104
aI106
aI107
aI109
aI111
aI120
aI121
aI122
aI126
aI127
aI130
aI131
aI133
aI137
aI139
aI141
aI144
aI147
aI148
aI149
aI152
aI153
aI155
aI157
aI158
aI160
aI162
aI163
aI164
aI165
aI166
aI169
aI170
aI174
aI175
aI179
aI180
aI181
aa(lp41
I1
aI2
aI3
aI4
aI5
aI7
aI9
aI12
aI15
aI24
aI27
aI28
aI29
aI30
aI31
aI32
aI33
aI34
aI35
aI36
aI37
aI38
aI39
aI40
aI41
aI42
aI43
aI44
aI45
aI46
aI47
aI48
aI49
aI50
aI51
aI52
aI53
aI54
aI55
aI56
aI57
aI58
aI59
aI60
aI61
aI62
aI63
aI64
aI65
aI66
aI67
aI68
aI69
aI70
aI71
aI72
aI73
aI74
aI75
aI76
aI77
aI78
aI79
aI80
aI81
aI82
aI83
aI84
aI85
aI86
aI87
aI88
aI89
aI90
aI91
aI92
aI93
aI94
aI95
aI96
aI97
aI98
aI99
aI100
aI101
aI102
aI103
aI104
aI105
aI106
aI107
aI108
aI109
aI110
aI111
aI112
aI113
aI114
aI115
aI116
aI117
aI118
aI119
aI120
aI121
aI122
aI123
aI124
aI125
aI126
aI127
aI128
aI129
aI130
aI131
aI132
aI133
aI134
aI135
aI136
aI137
aI138
aI139
aI140
aI141
aI142
aI143
aI144
aI145
aI146
aI147
aI148
aI149
aI150
aI151
aI152
aI153
aI154
aI155
aI156
aI157
aI158
aI159
aI160
aI161
aI162
aI163
aI164
aI165
aI166
aI167
aI168
aI169
aI170
aI171
aI172
aI173
aI174
aI175
aI176
aI177
aI178
aI179
aI180
aI181
aI182
aa(lp42
I0
aI2
aI3
aI10
aI12
aI13
aI14
aI18
aI19
aI22
aI24
aI26
aI27
aI28
aI29
aI30
aI31
aI32
aI33
aI34
aI35
aI36
aI37
aI38
aI39
aI40
aI41
aI42
aI43
aI44
aI45
aI46
aI47
aI48
aI49
aI50
aI51
aI52
aI53
aI54
aI55
aI56
aI57
aI58
aI59
aI60
aI61
aI62
aI63
aI64
aI65
aI66
aI67
aI68
aI69
aI70
aI71
aI72
aI73
aI74
aI75
aI76
aI77
aI78
aI79
aI80
aI81
aI82
aI83
aI84
aI85
aI86
aI87
aI88
aI89
aI90
aI91
aI92
aI93
aI94
aI95
aI96
aI97
aI98
aI99
aI100
aI101
aI102
aI103
aI104
aI105
aI106
aI107
aI108
aI109
aI110
aI111
aI112
aI113
aI114
aI115
aI116
aI117
aI118
aI119
aI120
aI121
aI122
aI123
aI124
aI125
aI126
aI127
aI128
aI129
aI130
aI131
aI132
aI133
aI134
aI135
aI136
aI137
aI138
aI139
aI140
aI141
aI142
aI143
aI144
aI145
aI146
aI147
aI148
aI149
aI150
aI151
aI152
aI153
aI154
aI155
aI156
aI157
aI158
aI159
aI160
aI161
aI162
aI163
aI164
aI165
aI166
aI167
aI168
aI169
aI170
aI171
aI172
aI173
aI174
aI175
aI176
aI177
aI178
aI179
aI180
aI181
aI182
aa(lp43
I27
aI28
aI29
aI30
aI31
aI32
aI33
aI34
aI35
aI36
aI37
aI38
aI39
aI40
aI42
aI43
aI44
aI45
aI46
aI47
aI48
aI51
aI52
aI53
aI54
aI55
aI56
aI57
aI58
aI59
aI60
aI61
aI64
aI65
aI66
aI67
aI68
aI69
aI70
aI71
aI72
aI73
aI74
aI75
aI76
aI77
aI78
aI79
aI80
aI82
aI83
aI84
aI85
aI86
aI88
aI89
aI90
aI91
aI92
aI93
aI94
aI95
aI96
aI98
aI99
aI100
aI101
aI102
aI103
aI104
aI105
aI108
aI109
aI110
aI111
aI112
aI113
aI114
aI115
aI116
aI117
aI118
aI119
aI120
aI121
aI122
aI123
aI124
aI125
aI126
aI128
aI129
aI130
aI131
aI133
aI134
aI135
aI137
aI138
aI139
aI140
aI141
aI142
aI143
aI144
aI145
aI146
aI147
aI148
aI149
aI150
aI151
aI152
aI153
aI154
aI155
aI156
aI157
aI158
aI159
aI161
aI162
aI163
aI165
aI166
aI167
aI168
aI169
aI170
aI171
aI172
aI173
aI174
aI175
aI176
aI177
aI178
aI179
aI180
aI181
aa(lp44
I4
aI6
aI15
aI28
aI33
aI34
aI35
aI36
aI37
aI38
aI39
aI40
aI41
aI42
aI44
aI47
aI49
aI50
aI51
aI53
aI54
aI55
aI57
aI58
aI59
aI60
aI61
aI62
aI63
aI64
aI65
aI66
aI67
aI68
aI69
aI70
aI71
aI73
aI74
aI75
aI76
aI77
aI78
aI79
aI80
aI81
aI82
aI83
aI84
aI86
aI87
aI89
aI90
aI91
aI92
aI93
aI94
aI95
aI96
aI97
aI98
aI99
aI101
aI102
aI108
aI109
aI110
aI111
aI113
aI114
aI115
aI116
aI117
aI118
aI119
aI120
aI121
aI122
aI124
aI125
aI126
aI127
aI128
aI129
aI130
aI131
aI132
aI133
aI136
aI137
aI138
aI139
aI140
aI141
aI142
aI143
aI144
aI145
aI147
aI148
aI149
aI150
aI152
aI154
aI155
aI156
aI157
aI158
aI159
aI160
aI161
aI162
aI163
aI164
aI165
aI166
aI167
aI168
aI169
aI170
aI171
aI172
aI173
aI174
aI175
aI176
aI177
aI178
aI179
aI180
aI181
aI182
aa(lp45
I0
aI1
aI3
aI5
aI12
aI16
aI19
aI20
aI21
aI26
aI29
aI30
aI31
aI32
aI33
aI34
aI35
aI36
aI37
aI38
aI39
aI40
aI41
aI42
aI43
aI44
aI45
aI46
aI47
aI48
aI49
aI50
aI51
aI52
aI53
aI54
aI55
aI56
aI57
aI58
aI59
aI60
aI61
aI62
aI63
aI65
aI66
aI67
aI68
aI69
aI70
aI71
aI72
aI73
aI74
aI75
aI76
aI77
aI78
aI79
aI80
aI81
aI82
aI83
aI84
aI85
aI86
aI87
aI88
aI89
aI90
aI91
aI92
aI93
aI94
aI95
aI96
aI97
aI98
aI99
aI100
aI101
aI102
aI103
aI104
aI105
aI106
aI107
aI108
aI109
aI110
aI111
aI112
aI113
aI114
aI115
aI116
aI117
aI118
aI119
aI120
aI121
aI123
aI124
aI125
aI126
aI127
aI128
aI129
aI131
aI132
aI133
aI134
aI136
aI137
aI138
aI139
aI140
aI141
aI142
aI143
aI145
aI146
aI147
aI148
aI150
aI151
aI152
aI153
aI154
aI155
aI156
aI157
aI158
aI159
aI161
aI162
aI163
aI164
aI165
aI166
aI167
aI168
aI169
aI170
aI171
aI172
aI173
aI174
aI175
aI176
aI177
aI178
aI179
aI180
aI182
aa(lp46
I2
aI7
aI8
aI11
aI12
aI14
aI16
aI18
aI20
aI23
aI24
aI26
aI27
aI28
aI30
aI31
aI32
aI33
aI34
aI35
aI36
aI37
aI38
aI39
aI40
aI41
aI42
aI43
aI44
aI45
aI46
aI47
aI48
aI49
aI50
aI51
aI52
aI53
aI54
aI55
aI56
aI57
aI58
aI59
aI60
aI61
aI62
aI63
aI64
aI65
aI66
aI67
aI68
aI69
aI70
aI71
aI72
aI73
aI74
aI75
aI76
aI77
aI78
aI79
aI80
aI81
aI82
aI83
aI84
aI85
aI86
aI88
aI89
aI90
aI91
aI92
aI94
aI95
aI96
aI97
aI98
aI99
aI100
aI101
aI102
aI103
aI104
aI105
aI106
aI107
aI108
aI109
aI110
aI111
aI112
aI113
aI114
aI115
aI116
aI117
aI118
aI119
aI120
aI121
aI122
aI123
aI124
aI125
aI126
aI127
aI128
aI129
aI130
aI131
aI132
aI133
aI134
aI135
aI136
aI137
aI138
aI139
aI140
aI141
aI142
aI143
aI144
aI145
aI146
aI147
aI148
aI149
aI150
aI151
aI152
aI153
aI154
aI155
aI156
aI157
aI158
aI159
aI160
aI161
aI162
aI163
aI164
aI165
aI166
aI167
aI168
aI169
aI170
aI171
aI172
aI173
aI174
aI175
aI176
aI177
aI178
aI179
aI180
aI181
aI182
aa(lp47
I1
aI2
aI6
aI9
aI14
aI29
aI30
aI31
aI33
aI34
aI35
aI36
aI37
aI38
aI39
aI40
aI41
aI42
aI43
aI44
aI45
aI46
aI47
aI48
aI49
aI50
aI51
aI53
aI54
aI55
aI56
aI57
aI58
aI59
aI60
aI61
aI62
aI63
aI64
aI65
aI66
aI67
aI68
aI69
aI70
aI71
aI72
aI73
aI74
aI75
aI76
aI77
aI78
aI79
aI80
aI81
aI82
aI83
aI84
aI85
aI86
aI87
aI88
aI89
aI90
aI91
aI92
aI93
aI94
aI95
aI96
aI97
aI98
aI99
aI100
aI101
aI102
aI103
aI104
aI105
aI106
aI107
aI108
aI109
aI110
aI111
aI112
aI113
aI114
aI115
aI116
aI117
aI118
aI119
aI120
aI121
aI122
aI123
aI124
aI125
aI126
aI127
aI128
aI129
aI130
aI131
aI132
aI133
aI134
aI135
aI136
aI137
aI138
aI139
aI140
aI141
aI142
aI143
aI144
aI145
aI146
aI147
aI148
aI149
aI150
aI151
aI152
aI153
aI154
aI155
aI156
aI157
aI158
aI159
aI160
aI161
aI162
aI163
aI164
aI165
aI166
aI167
aI168
aI169
aI170
aI171
aI172
aI173
aI174
aI175
aI176
aI177
aI178
aI179
aI180
aI181
aI182
aa(lp48
I2
aI11
aI27
aI29
aI30
aI32
aI34
aI36
aI37
aI41
aI42
aI44
aI45
aI47
aI49
aI52
aI55
aI57
aI58
aI59
aI60
aI64
aI65
aI66
aI67
aI70
aI72
aI73
aI74
aI75
aI76
aI79
aI81
aI82
aI83
aI84
aI85
aI86
aI87
aI88
aI89
aI90
aI92
aI93
aI94
aI95
aI96
aI97
aI98
aI99
aI100
aI101
aI103
aI105
aI106
aI107
aI108
aI110
aI111
aI112
aI113
aI115
aI116
aI118
aI119
aI120
aI121
aI122
aI123
aI124
aI125
aI126
aI128
aI129
aI130
aI131
aI132
aI133
aI135
aI136
aI137
aI138
aI139
aI140
aI142
aI143
aI144
aI145
aI146
aI147
aI150
aI152
aI153
aI154
aI156
aI157
aI158
aI162
aI164
aI165
aI167
aI170
aI171
aI173
aI174
aI175
aI176
aI177
aI178
aI180
aI181
aa(lp49
I1
aI5
aI11
aI17
aI21
aI27
aI31
aI32
aI33
aI34
aI35
aI36
aI37
aI39
aI40
aI41
aI42
aI43
aI44
aI45
aI46
aI47
aI48
aI49
aI50
aI51
aI52
aI53
aI54
aI55
aI58
aI59
aI61
aI62
aI63
aI64
aI65
aI66
aI67
aI68
aI69
aI72
aI73
aI74
aI75
aI76
aI77
aI78
aI79
aI81
aI82
aI83
aI85
aI87
aI90
aI91
aI92
aI93
aI94
aI95
aI96
aI97
aI98
aI99
aI100
aI101
aI103
aI104
aI105
aI106
aI107
aI108
aI109
aI110
aI111
aI112
aI113
aI114
aI115
aI116
aI117
aI118
aI119
aI120
aI121
aI122
aI123
aI124
aI125
aI126
aI127
aI128
aI129
aI130
aI131
aI132
aI133
aI134
aI135
aI136
aI137
aI138
aI139
aI140
aI141
aI143
aI145
aI146
aI147
aI148
aI149
aI150
aI151
aI152
aI153
aI155
aI156
aI157
aI158
aI159
aI160
aI161
aI162
aI163
aI164
aI165
aI166
aI167
aI168
aI169
aI170
aI171
aI172
aI173
aI174
aI175
aI176
aI177
aI178
aI179
aI180
aI181
aI182
aa(lp50
I5
aI11
aI19
aI25
aI27
aI28
aI29
aI30
aI31
aI32
aI33
aI34
aI35
aI37
aI38
aI39
aI40
aI41
aI42
aI43
aI44
aI45
aI46
aI47
aI48
aI49
aI50
aI51
aI52
aI53
aI54
aI55
aI57
aI58
aI59
aI61
aI62
aI63
aI64
aI65
aI66
aI67
aI68
aI69
aI70
aI71
aI72
aI73
aI74
aI75
aI76
aI77
aI78
aI79
aI80
aI81
aI83
aI84
aI85
aI86
aI87
aI88
aI89
aI90
aI93
aI94
aI95
aI96
aI97
aI98
aI99
aI100
aI101
aI102
aI103
aI104
aI105
aI106
aI107
aI108
aI109
aI110
aI111
aI112
aI113
aI114
aI115
aI116
aI117
aI118
aI119
aI120
aI121
aI122
aI123
aI124
aI125
aI126
aI127
aI128
aI129
aI130
aI131
aI132
aI133
aI134
aI135
aI136
aI137
aI138
aI139
aI140
aI141
aI142
aI143
aI144
aI145
aI146
aI147
aI148
aI149
aI150
aI151
aI152
aI153
aI154
aI155
aI156
aI157
aI158
aI159
aI160
aI161
aI162
aI163
aI164
aI165
aI166
aI167
aI168
aI169
aI170
aI171
aI172
aI173
aI174
aI175
aI176
aI177
aI178
aI179
aI180
aI181
aI182
aa(lp51
I1
aI27
aI28
aI29
aI30
aI31
aI32
aI33
aI34
aI35
aI36
aI39
aI40
aI42
aI43
aI44
aI45
aI46
aI47
aI48
aI50
aI51
aI52
aI53
aI54
aI55
aI56
aI57
aI58
aI59
aI60
aI61
aI62
aI63
aI65
aI66
aI67
aI68
aI69
aI70
aI71
aI72
aI73
aI74
aI76
aI77
aI78
aI79
aI81
aI82
aI83
aI84
aI85
aI86
aI87
aI88
aI89
aI90
aI91
aI94
aI95
aI96
aI97
aI98
aI100
aI101
aI103
aI104
aI105
aI106
aI107
aI108
aI109
aI110
aI111
aI112
aI114
aI115
aI116
aI117
aI118
aI119
aI120
aI121
aI122
aI123
aI124
aI125
aI126
aI127
aI129
aI130
aI131
aI132
aI133
aI134
aI135
aI136
aI137
aI138
aI139
aI140
aI141
aI142
aI143
aI144
aI145
aI146
aI147
aI148
aI149
aI150
aI151
aI152
aI153
aI154
aI155
aI157
aI158
aI159
aI161
aI162
aI163
aI164
aI165
aI166
aI167
aI168
aI170
aI171
aI172
aI173
aI174
aI175
aI176
aI177
aI178
aI180
aI181
aI182
aa.