(lp1
(lp2
I23
aI25
aI13
aI21
aI13
aI8
aI9
aI41
aI30
aI16
aI13
aI16
aI55
aI26
aI21
aI62
aI32
aI30
aI47
aI78
aI41
aI43
aI21
aI24
aI20
aI29
aI35
aI33
aI31
aI27
aI20
aI33
aI50
aI22
aI20
aI58
aI28
aI47
aI33
aI18
aI60
aI40
aI36
aI35
aI38
aI49
aI30
aI39
aI48
aI41
aI56
aI24
aI36
aI18
aI29
aI61
aI47
aI32
aI26
aI38
aI24
aI35
aI29
aI42
aI38
aI42
aI45
aI25
aI31
aI28
aI35
aI51
aI73
aI56
aI66
aI70
aI44
aI45
aI47
aI51
aI45
aI51
aI41
aI91
aI49
aI93
aI28
aI15
aI45
aI30
aI62
aI66
aI39
aI31
aI35
aI48
aI43
aI48
aI41
aI43
aI35
aI30
aI43
aI47
aI45
aI53
aI37
aI25
aI30
aI35
aI33
aI52
aI34
aI27
aI30
aI28
aI36
aI47
aI42
aI28
aI42
aI44
aI40
aI29
aI57
aI37
aI50
aI53
aI38
aI60
aI64
aI33
aI34
aI36
aI57
aI43
aI22
aI20
aI27
aI32
aI136
aI33
aI37
aI43
aI38
aI20
aI23
aI23
aI80
aI31
aI42
aI26
aI38
aI42
aI24
aI41
aI13
aI31
aI30
aI32
aI69
aI42
aI39
aI40
aI32
aI22
aI27
aI32
aI30
aI94
aI30
aI67
aI38
aI30
aI23
aI34
aI78
aI76
aI117
aI83
aI134
aI50
aI70
aa(lp3
I3
aI5
aI7
aI12
aI2
aI29
aI2
aI8
aI7
aI4
aI2
aI18
aI6
aI6
aI5
aI7
aI4
aI1
aI8
aI5
aI7
aI46
aI15
aI3
aI1
aI4
aI8
aI10
aI7
aI23
aI7
aI21
aI13
aI8
aI14
aI32
aI16
aI13
aI11
aI4
aI10
aI4
aI12
aI6
aI10
aI13
aI11
aI11
aI5
aI6
aI11
aI7
aI2
aI11
aI11
aI30
aI12
aI11
aI12
aI13
aI27
aI21
aI12
aI15
aI5
aI14
aI24
aI5
aI10
aI10
aI20
aI5
aI10
aI15
aI18
aI16
aI11
aI16
aI3
aI23
aI15
aI21
aI9
aI9
aI18
aI7
aI13
aI5
aI11
aI13
aI10
aI4
aI11
aI16
aI12
aI15
aI15
aI18
aI14
aI17
aI23
aI12
aI35
aI12
aI17
aI56
aI11
aI19
aI15
aI14
aI16
aI24
aI5
aI10
aI14
aI29
aI17
aI16
aI17
aI14
aI9
aI22
aI48
aI41
aI31
aI24
aI14
aI19
aI14
aI11
aI11
aI23
aI30
aI44
aI27
aI13
aI14
aI16
aI10
aI9
aI12
aI7
aI18
aI20
aI21
aI13
aI13
aI13
aI17
aI12
aI12
aI13
aI20
aI16
aI12
aI28
aI16
aI24
aI14
aI20
aI22
aI21
aI115
aI27
aI22
aI17
aI31
aI17
aI24
aI49
aI23
aI29
aI14
aI57
aI93
aI26
aI22
aI24
aI17
aI22
aI36
aI26
aI27
aa(lp4
I343
aI275
aI299
aI358
aI227
aI337
aI327
aI308
aI445
aI337
aI275
aI290
aI375
aI306
aI452
aI557
aI513
aI263
aI282
aI234
aI310
aI446
aI362
aI366
aI418
aI381
aI559
aI519
aI591
aI1073
aI929
aI610
aI379
aI455
aI625
aI751
aI425
aI474
aI431
aI372
aI443
aI362
aI417
aI325
aI529
aI314
aI559
aI245
aI394
aI299
aI567
aI327
aI259
aI400
aI435
aI430
aI503
aI320
aI244
aI458
aI247
aI729
aI357
aI602
aI288
aI429
aI305
aI409
aI268
aI383
aI405
aI219
aI352
aI246
aI458
aI302
aI409
aI395
aI328
aI436
aI306
aI331
aI236
aI400
aI424
aI264
aI266
aI250
aI362
aI332
aI424
aI254
aI233
aI213
aI287
aI419
aI242
aI287
aI470
aI361
aI450
aI217
aI282
aI303
aI262
aI267
aI295
aI229
aI326
aI266
aI246
aI686
aI345
aI398
aI306
aI424
aI501
aI397
aI409
aI389
aI300
aI350
aI461
aI460
aI404
aI328
aI321
aI304
aI400
aI441
aI390
aI410
aI393
aI462
aI464
aI891
aI474
aI405
aI281
aI402
aI469
aI378
aI316
aI459
aI328
aI272
aI358
aI493
aI407
aI335
aI374
aI344
aI381
aI487
aI310
aI454
aI295
aI410
aI393
aI479
aI507
aI407
aI354
aI395
aI399
aI424
aI296
aI290
aI434
aI413
aI328
aI751
aI333
aI505
aI416
aI500
aI385
aI342
aI479
aI368
aI477
aI484
aI420
aa(lp5
I31
aI8
aI4
aI4
aI33
aI20
aI9
aI10
aI13
aI13
aI8
aI13
aI14
aI5
aI8
aI9
aI7
aI4
aI3
aI7
aI12
aI16
aI8
aI9
aI7
aI10
aI8
aI4
aI28
aI20
aI3
aI9
aI6
aI5
aI8
aI7
aI15
aI7
aI11
aI6
aI7
aI11
aI7
aI14
aI10
aI4
aI5
aI5
aI8
aI27
aI16
aI7
aI30
aI7
aI36
aI11
aI11
aI8
aI4
aI5
aI10
aI8
aI267
aI232
aI115
aI59
aI48
aI10
aI13
aI23
aI21
aI21
aI14
aI19
aI41
aI25
aI10
aI23
aI22
aI8
aI11
aI14
aI14
aI34
aI27
aI20
aI95
aI16
aI41
aI65
aI148
aI182
aI134
aI176
aI104
aI77
aI84
aI93
aI102
aI74
aI53
aI77
aI87
aI53
aI64
aI52
aI57
aI36
aI48
aI48
aI30
aI45
aI32
aI29
aI23
aI28
aI49
aI25
aI50
aI17
aI9
aI16
aI39
aI40
aI25
aI33
aI25
aI12
aI17
aI23
aI12
aI19
aI23
aI25
aI10
aI15
aI10
aI10
aI10
aI11
aI158
aI18
aI13
aI30
aI23
aI23
aI35
aI37
aI29
aI26
aI37
aI7
aI22
aI34
aI14
aI17
aI17
aI11
aI15
aI8
aI18
aI18
aI21
aI13
aI6
aI10
aI9
aI10
aI26
aI58
aI21
aI14
aI54
aI22
aI40
aI22
aI16
aI11
aI9
aI18
aI19
aI13
aI23
aa(lp6
I48
aI29
aI59
aI80
aI49
aI92
aI59
aI95
aI35
aI53
aI50
aI57
aI58
aI44
aI70
aI61
aI58
aI61
aI82
aI95
aI105
aI71
aI74
aI73
aI41
aI55
aI38
aI99
aI55
aI45
aI60
aI90
aI92
aI93
aI59
aI76
aI91
aI72
aI61
aI61
aI98
aI83
aI54
aI52
aI94
aI78
aI67
aI60
aI60
aI75
aI56
aI89
aI64
aI70
aI91
aI57
aI46
aI70
aI55
aI47
aI47
aI53
aI71
aI83
aI61
aI51
aI67
aI86
aI63
aI60
aI107
aI44
aI83
aI65
aI134
aI92
aI89
aI67
aI62
aI58
aI84
aI76
aI70
aI77
aI103
aI56
aI57
aI69
aI89
aI68
aI80
aI56
aI43
aI62
aI60
aI53
aI58
aI55
aI105
aI78
aI58
aI44
aI38
aI35
aI54
aI55
aI61
aI32
aI46
aI69
aI58
aI56
aI87
aI78
aI80
aI78
aI91
aI68
aI120
aI88
aI80
aI62
aI77
aI100
aI71
aI68
aI61
aI255
aI49
aI70
aI128
aI252
aI238
aI195
aI206
aI234
aI207
aI163
aI209
aI161
aI177
aI138
aI131
aI121
aI107
aI108
aI123
aI202
aI74
aI102
aI97
aI89
aI94
aI86
aI71
aI77
aI91
aI92
aI76
aI152
aI70
aI111
aI47
aI79
aI71
aI112
aI132
aI118
aI74
aI83
aI93
aI153
aI96
aI176
aI92
aI93
aI85
aI60
aI91
aI129
aI66
aI84
aI86
aa(lp7
I67
aI47
aI29
aI28
aI45
aI29
aI82
aI34
aI31
aI32
aI22
aI30
aI24
aI29
aI25
aI17
aI19
aI36
aI17
aI26
aI28
aI31
aI56
aI28
aI28
aI60
aI41
aI42
aI27
aI37
aI20
aI45
aI35
aI43
aI37
aI38
aI60
aI20
aI37
aI37
aI39
aI59
aI52
aI26
aI25
aI27
aI42
aI38
aI46
aI56
aI49
aI44
aI76
aI34
aI23
aI71
aI56
aI38
aI45
aI43
aI49
aI36
aI118
aI30
aI17
aI29
aI61
aI44
aI58
aI91
aI48
aI44
aI60
aI36
aI52
aI37
aI45
aI42
aI45
aI28
aI39
aI34
aI43
aI43
aI46
aI57
aI32
aI41
aI46
aI27
aI56
aI56
aI52
aI65
aI77
aI35
aI31
aI39
aI69
aI42
aI40
aI41
aI25
aI30
aI49
aI36
aI43
aI38
aI39
aI40
aI51
aI60
aI43
aI34
aI34
aI29
aI36
aI26
aI45
aI50
aI37
aI46
aI38
aI42
aI54
aI49
aI54
aI37
aI29
aI35
aI33
aI47
aI40
aI84
aI72
aI120
aI34
aI88
aI38
aI41
aI45
aI41
aI27
aI37
aI26
aI27
aI30
aI33
aI23
aI32
aI25
aI37
aI22
aI35
aI49
aI33
aI23
aI37
aI19
aI23
aI58
aI43
aI27
aI30
aI27
aI31
aI52
aI28
aI43
aI25
aI39
aI29
aI28
aI18
aI56
aI39
aI39
aI46
aI85
aI46
aI108
aI32
aI19
aa(lp8
I105
aI52
aI94
aI118
aI113
aI68
aI46
aI82
aI72
aI137
aI92
aI81
aI119
aI109
aI152
aI81
aI80
aI76
aI48
aI62
aI89
aI107
aI70
aI34
aI60
aI73
aI109
aI80
aI115
aI400
aI107
aI80
aI103
aI154
aI133
aI199
aI117
aI105
aI83
aI74
aI131
aI82
aI79
aI111
aI62
aI119
aI86
aI104
aI104
aI121
aI87
aI126
aI91
aI129
aI82
aI64
aI80
aI77
aI86
aI91
aI76
aI91
aI103
aI122
aI118
aI85
aI202
aI125
aI98
aI86
aI85
aI79
aI119
aI270
aI285
aI289
aI159
aI184
aI154
aI119
aI114
aI118
aI111
aI155
aI130
aI90
aI171
aI123
aI121
aI126
aI84
aI120
aI91
aI140
aI68
aI90
aI98
aI86
aI97
aI167
aI143
aI183
aI165
aI116
aI166
aI94
aI79
aI82
aI74
aI114
aI73
aI64
aI79
aI171
aI111
aI98
aI87
aI149
aI107
aI113
aI89
aI101
aI103
aI62
aI155
aI123
aI107
aI109
aI101
aI133
aI92
aI99
aI141
aI147
aI88
aI81
aI94
aI142
aI90
aI90
aI140
aI140
aI74
aI82
aI72
aI82
aI79
aI71
aI119
aI76
aI76
aI107
aI97
aI76
aI60
aI66
aI117
aI78
aI108
aI73
aI83
aI112
aI153
aI110
aI148
aI89
aI114
aI108
aI125
aI90
aI90
aI114
aI84
aI122
aI142
aI124
aI182
aI86
aI85
aI76
aI81
aI89
aI112
aa(lp9
I67
aI75
aI71
aI92
aI65
aI89
aI64
aI100
aI71
aI44
aI51
aI108
aI107
aI89
aI81
aI105
aI78
aI91
aI91
aI161
aI139
aI144
aI112
aI72
aI108
aI148
aI172
aI93
aI161
aI123
aI102
aI135
aI137
aI140
aI190
aI203
aI167
aI109
aI154
aI85
aI121
aI78
aI184
aI124
aI74
aI109
aI108
aI115
aI140
aI95
aI106
aI102
aI88
aI90
aI94
aI101
aI140
aI104
aI109
aI131
aI169
aI148
aI193
aI241
aI168
aI139
aI116
aI102
aI148
aI157
aI120
aI104
aI168
aI174
aI111
aI175
aI137
aI142
aI137
aI150
aI114
aI148
aI111
aI192
aI158
aI186
aI149
aI133
aI93
aI96
aI115
aI136
aI139
aI99
aI100
aI113
aI134
aI101
aI97
aI118
aI140
aI90
aI101
aI99
aI98
aI87
aI110
aI94
aI90
aI103
aI51
aI63
aI57
aI156
aI110
aI72
aI114
aI78
aI69
aI91
aI101
aI134
aI86
aI115
aI89
aI75
aI89
aI75
aI63
aI69
aI303
aI303
aI304
aI321
aI294
aI237
aI215
aI137
aI137
aI127
aI133
aI131
aI140
aI160
aI132
aI529
aI1081
aI860
aI811
aI622
aI576
aI490
aI581
aI644
aI574
aI672
aI591
aI466
aI528
aI473
aI477
aI426
aI311
aI388
aI369
aI332
aI388
aI326
aI294
aI327
aI278
aI227
aI265
aI250
aI312
aI282
aI230
aI168
aI255
aI270
aI263
aI263
aI268
aa(lp10
I42
aI70
aI16
aI96
aI73
aI57
aI53
aI38
aI59
aI37
aI39
aI59
aI39
aI58
aI126
aI52
aI38
aI30
aI26
aI18
aI24
aI58
aI40
aI50
aI62
aI31
aI140
aI181
aI216
aI103
aI154
aI47
aI61
aI51
aI225
aI73
aI41
aI42
aI46
aI54
aI91
aI196
aI115
aI209
aI54
aI58
aI69
aI37
aI57
aI73
aI40
aI99
aI72
aI46
aI42
aI95
aI117
aI36
aI100
aI101
aI127
aI227
aI49
aI69
aI25
aI64
aI41
aI41
aI52
aI69
aI51
aI64
aI54
aI89
aI40
aI92
aI125
aI98
aI65
aI100
aI171
aI113
aI53
aI128
aI143
aI55
aI57
aI79
aI27
aI66
aI173
aI89
aI108
aI204
aI122
aI66
aI226
aI93
aI164
aI120
aI329
aI86
aI60
aI45
aI65
aI109
aI39
aI66
aI53
aI132
aI54
aI106
aI79
aI92
aI39
aI90
aI116
aI96
aI99
aI206
aI48
aI54
aI51
aI100
aI63
aI145
aI78
aI102
aI94
aI55
aI87
aI239
aI79
aI59
aI131
aI113
aI33
aI100
aI35
aI84
aI67
aI86
aI66
aI47
aI111
aI57
aI46
aI84
aI123
aI54
aI81
aI40
aI118
aI31
aI36
aI146
aI54
aI38
aI38
aI73
aI23
aI66
aI62
aI63
aI144
aI52
aI259
aI45
aI73
aI61
aI88
aI48
aI197
aI91
aI153
aI61
aI81
aI90
aI128
aI73
aI95
aI108
aI169
aa(lp11
I151
aI160
aI197
aI102
aI120
aI141
aI86
aI69
aI90
aI115
aI75
aI101
aI101
aI68
aI190
aI129
aI105
aI84
aI93
aI62
aI82
aI77
aI94
aI83
aI55
aI66
aI58
aI90
aI62
aI66
aI103
aI81
aI103
aI160
aI72
aI143
aI115
aI82
aI62
aI74
aI109
aI72
aI87
aI105
aI170
aI86
aI88
aI98
aI63
aI151
aI104
aI89
aI72
aI68
aI80
aI85
aI69
aI62
aI108
aI100
aI94
aI96
aI80
aI104
aI120
aI106
aI92
aI122
aI102
aI111
aI160
aI187
aI94
aI115
aI65
aI69
aI83
aI104
aI96
aI77
aI239
aI154
aI116
aI126
aI125
aI71
aI69
aI74
aI85
aI87
aI63
aI91
aI60
aI84
aI69
aI57
aI77
aI124
aI87
aI122
aI64
aI56
aI77
aI107
aI88
aI77
aI193
aI73
aI81
aI94
aI77
aI78
aI85
aI87
aI88
aI64
aI122
aI66
aI85
aI147
aI82
aI97
aI144
aI84
aI209
aI90
aI125
aI100
aI63
aI90
aI97
aI88
aI101
aI56
aI89
aI104
aI111
aI71
aI74
aI73
aI68
aI81
aI140
aI86
aI69
aI73
aI131
aI100
aI76
aI331
aI61
aI96
aI88
aI68
aI57
aI84
aI102
aI112
aI100
aI93
aI93
aI101
aI76
aI113
aI90
aI84
aI141
aI137
aI100
aI145
aI90
aI97
aI70
aI112
aI124
aI140
aI96
aI67
aI83
aI86
aI89
aI84
aI155
aa(lp12
I25
aI13
aI21
aI10
aI11
aI24
aI18
aI21
aI7
aI22
aI10
aI30
aI12
aI15
aI16
aI13
aI7
aI11
aI5
aI10
aI17
aI25
aI22
aI23
aI19
aI18
aI23
aI38
aI29
aI16
aI17
aI24
aI22
aI16
aI24
aI30
aI32
aI15
aI24
aI10
aI19
aI42
aI13
aI18
aI16
aI36
aI24
aI27
aI21
aI40
aI19
aI19
aI17
aI22
aI18
aI24
aI27
aI12
aI16
aI25
aI20
aI19
aI36
aI39
aI20
aI13
aI17
aI19
aI26
aI27
aI27
aI30
aI55
aI26
aI27
aI25
aI20
aI17
aI21
aI26
aI25
aI30
aI26
aI41
aI22
aI16
aI4
aI18
aI14
aI39
aI29
aI29
aI18
aI22
aI12
aI17
aI26
aI15
aI38
aI31
aI32
aI23
aI13
aI15
aI25
aI28
aI25
aI17
aI17
aI29
aI20
aI16
aI29
aI14
aI13
aI8
aI22
aI20
aI37
aI18
aI9
aI13
aI12
aI23
aI16
aI25
aI12
aI20
aI23
aI24
aI27
aI24
aI24
aI24
aI33
aI48
aI13
aI22
aI11
aI10
aI21
aI12
aI7
aI20
aI24
aI15
aI18
aI27
aI14
aI13
aI35
aI10
aI10
aI22
aI18
aI22
aI12
aI22
aI18
aI28
aI9
aI13
aI31
aI38
aI39
aI12
aI20
aI26
aI13
aI29
aI20
aI33
aI14
aI98
aI22
aI20
aI28
aI17
aI40
aI31
aI24
aI23
aI46
aa(lp13
I73
aI98
aI76
aI70
aI69
aI59
aI63
aI41
aI62
aI99
aI32
aI43
aI39
aI39
aI49
aI122
aI62
aI28
aI79
aI69
aI45
aI59
aI38
aI45
aI69
aI65
aI93
aI32
aI70
aI43
aI44
aI44
aI71
aI37
aI43
aI36
aI49
aI43
aI52
aI48
aI33
aI34
aI73
aI70
aI50
aI48
aI78
aI45
aI75
aI66
aI75
aI46
aI65
aI35
aI33
aI40
aI37
aI41
aI32
aI35
aI45
aI33
aI28
aI24
aI22
aI47
aI39
aI35
aI77
aI40
aI52
aI37
aI57
aI275
aI344
aI284
aI118
aI167
aI74
aI73
aI85
aI75
aI95
aI66
aI130
aI138
aI56
aI73
aI71
aI73
aI46
aI43
aI48
aI38
aI48
aI51
aI35
aI51
aI49
aI60
aI35
aI29
aI37
aI22
aI41
aI46
aI35
aI67
aI43
aI42
aI38
aI36
aI26
aI53
aI35
aI37
aI32
aI56
aI94
aI44
aI35
aI49
aI40
aI35
aI45
aI58
aI171
aI40
aI62
aI46
aI28
aI40
aI65
aI305
aI43
aI42
aI45
aI43
aI34
aI39
aI70
aI50
aI37
aI37
aI39
aI97
aI221
aI114
aI100
aI82
aI71
aI140
aI89
aI101
aI63
aI62
aI84
aI65
aI76
aI99
aI63
aI77
aI29
aI72
aI68
aI147
aI61
aI42
aI67
aI58
aI49
aI45
aI61
aI73
aI85
aI53
aI35
aI37
aI53
aI46
aI61
aI52
aI51
aa(lp14
I5
aI1
aI3
aI5
aI6
aI5
aI2
aI7
aI1
aI4
aI1
aI5
aI2
aI5
aI4
aI3
aI1
aI1
aI3
aI5
aI5
aI7
aI3
aI11
aI6
aI5
aI9
aI6
aI1
aI4
aI4
aI1
aI2
aI1
aI2
aI2
aI3
aI1
aI2
aI4
aI1
aI2
aI4
aI2
aI6
aI2
aI24
aI5
aI3
aI2
aI2
aI2
aI3
aI1
aI3
aI4
aI1
aI1
aI2
aI1
aI1
aI1
aI2
aI12
aI2
aI3
aI4
aI2
aI4
aI1
aI6
aI3
aI3
aI3
aI3
aI3
aI9
aI8
aI4
aI3
aI5
aI5
aI3
aI1
aI3
aI4
aI6
aI18
aI8
aI10
aI3
aI3
aI5
aI1
aI2
aI6
aI5
aI3
aI1
aI2
aI1
aI1
aI4
aI4
aI1
aI5
aI1
aI3
aI6
aI2
aI1
aI5
aI3
aI6
aI7
aI2
aI6
aI1
aI2
aI2
aI1
aI4
aI1
aI1
aI2
aI2
aI1
aI3
aI3
aI5
aI3
aI5
aI2
aI2
aI3
aI2
aI1
aI3
aI8
aI1
aI2
aI1
aI1
aI7
aI1
aI3
aI3
aI4
aI3
aI2
aI7
aI5
aI4
aI2
aI1
aI1
aI6
aI1
aI1
aI3
aI3
aI1
aI2
aI4
aI9
aI2
aI4
aa(lp15
I3
aI2
aI6
aI4
aI3
aI2
aI3
aI33
aI11
aI63
aI40
aI59
aI36
aI62
aI4
aI16
aI1
aI2
aI3
aI4
aI1
aI3
aI7
aI1
aI9
aI87
aI10
aI6
aI19
aI4
aI240
aI2
aI8
aI7
aI7
aI1
aI29
aI1
aI15
aI19
aI35
aI9
aI26
aI12
aI7
aI51
aI31
aI6
aI13
aI10
aI6
aI11
aI3
aI3
aI4
aI1
aI7
aI2
aI4
aI4
aI13
aI5
aI2
aI3
aI24
aI1
aI2
aI2
aI1
aI4
aI11
aI52
aI5
aI1
aI4
aI15
aI34
aI6
aI1
aI26
aI45
aI2
aI9
aI1
aI17
aI23
aI2
aI5
aI4
aI3
aI4
aI65
aI2
aI4
aI3
aI2
aI8
aI9
aI1
aI4
aI2
aI10
aI6
aI4
aI13
aI5
aI15
aI18
aI13
aI5
aI5
aI5
aI9
aI3
aI12
aI12
aI5
aI10
aI10
aI14
aI35
aI18
aI8
aI32
aI122
aI24
aI2
aI9
aI1
aI4
aI4
aI31
aI12
aI50
aI1
aI13
aI5
aI103
aI12
aI2
aI5
aI10
aI39
aI3
aI2
aI9
aI2
aI251
aI2
aI3
aI9
aI178
aI3
aI11
aI7
aI18
aI27
aI4
aI3
aI3
aI4
aI2
aI2
aI5
aI1
aI15
aI5
aI167
aI12
aI23
aI17
aa(lp16
I666
aI266
aI442
aI417
aI287
aI328
aI540
aI471
aI456
aI286
aI340
aI320
aI377
aI226
aI292
aI393
aI382
aI333
aI333
aI499
aI579
aI449
aI493
aI398
aI259
aI378
aI561
aI505
aI576
aI591
aI394
aI526
aI451
aI480
aI535
aI449
aI654
aI462
aI325
aI318
aI436
aI415
aI541
aI361
aI307
aI483
aI373
aI399
aI612
aI448
aI521
aI544
aI347
aI427
aI459
aI476
aI464
aI403
aI356
aI389
aI390
aI587
aI999
aI403
aI376
aI404
aI411
aI1339
aI844
aI942
aI847
aI793
aI872
aI579
aI686
aI832
aI506
aI463
aI398
aI407
aI876
aI479
aI604
aI449
aI501
aI346
aI535
aI346
aI551
aI446
aI532
aI479
aI538
aI460
aI379
aI553
aI498
aI693
aI823
aI598
aI450
aI439
aI491
aI380
aI553
aI635
aI450
aI565
aI587
aI551
aI405
aI814
aI527
aI588
aI438
aI363
aI737
aI562
aI433
aI442
aI687
aI612
aI511
aI820
aI814
aI621
aI665
aI706
aI623
aI652
aI1040
aI557
aI511
aI521
aI742
aI714
aI601
aI544
aI695
aI1513
aI1872
aI1109
aI994
aI1009
aI917
aI763
aI1706
aI1331
aI1129
aI838
aI690
aI992
aI604
aI955
aI463
aI433
aI405
aI607
aI419
aI623
aI479
aI458
aI428
aI546
aI513
aI765
aI419
aI452
aI462
aI673
aI670
aI347
aI485
aI617
aI681
aI574
aI526
aI436
aI435
aI545
aI684
aI668
aI602
aa(lp17
I55
aI34
aI42
aI1450
aI1809
aI502
aI388
aI253
aI387
aI384
aI788
aI781
aI463
aI397
aI445
aI385
aI630
aI833
aI1053
aI485
aI455
aI682
aI370
aI508
aI1394
aI2229
aI1551
aI961
aI1084
aI984
aI947
aI723
aI646
aI932
aI1027
aI657
aI664
aI598
aI832
aI342
aI308
aI195
aI187
aI308
aI281
aI64
aI135
aI125
aI100
aI240
aI48
aI172
aI109
aI96
aI67
aI134
aI128
aI219
aI108
aI117
aI201
aI234
aI131
aI131
aI176
aI141
aI134
aI182
aI148
aI91
aI85
aI192
aI112
aI87
aI110
aI253
aI118
aI151
aI134
aI61
aI106
aI193
aI85
aI365
aI123
aI199
aI87
aI106
aI109
aI118
aI186
aI91
aI112
aI94
aI96
aI25
aI129
aI87
aI57
aI116
aI66
aI91
aI249
aI70
aI97
aI84
aI166
aI272
aI288
aI150
aI76
aI198
aI125
aI116
aI68
aI78
aI109
aI146
aI199
aI135
aI169
aI124
aI139
aI117
aI60
aI177
aI73
aI50
aI173
aI122
aI129
aI108
aI98
aI75
aI81
aI268
aI164
aI95
aI52
aI80
aI106
aI128
aI111
aI73
aI77
aI80
aI34
aI208
aI87
aI220
aI82
aI135
aI64
aI158
aI270
aI72
aI88
aI57
aI43
aI73
aI83
aI107
aI136
aI67
aI171
aI124
aI95
aI104
aI101
aI168
aI96
aI79
aI67
aI60
aI44
aI115
aI58
aI38
aI70
aI75
aI96
aI54
aI72
aa(lp18
I5
aI14
aI7
aI3
aI4
aI14
aI10
aI7
aI10
aI27
aI44
aI32
aI27
aI35
aI30
aI42
aI87
aI72
aI99
aI93
aI73
aI61
aI53
aI18
aI35
aI20
aI23
aI40
aI29
aI32
aI40
aI20
aI24
aI32
aI42
aI53
aI24
aI32
aI19
aI31
aI28
aI27
aI21
aI78
aI8
aI24
aI29
aI31
aI33
aI44
aI13
aI34
aI31
aI12
aI16
aI27
aI29
aI20
aI30
aI34
aI16
aI71
aI19
aI22
aI22
aI19
aI28
aI17
aI28
aI18
aI39
aI37
aI20
aI19
aI42
aI35
aI23
aI29
aI36
aI13
aI11
aI25
aI11
aI11
aI15
aI40
aI9
aI8
aI12
aI14
aI15
aI14
aI20
aI3
aI10
aI21
aI14
aI25
aI24
aI39
aI19
aI32
aI16
aI16
aI19
aI20
aI12
aI13
aI16
aI9
aI16
aI14
aI20
aI27
aI12
aI33
aI13
aI19
aI18
aI17
aI21
aI14
aI7
aI11
aI42
aI67
aI37
aI6
aI33
aI25
aI10
aI21
aI99
aI10
aI19
aI25
aI12
aI61
aI12
aI18
aI34
aI41
aI20
aI20
aI16
aI17
aI23
aI6
aI20
aI18
aI15
aI10
aI22
aI8
aI33
aI53
aI14
aI23
aI12
aI82
aI23
aI27
aI22
aI18
aI19
aI17
aI30
aI9
aI13
aI19
aI12
aI11
aI8
aI11
aI14
aI31
aI18
aI22
aI7
aI15
aI17
aI6
aI10
aa(lp19
I86
aI55
aI106
aI43
aI121
aI39
aI171
aI48
aI53
aI33
aI46
aI149
aI289
aI805
aI1083
aI855
aI563
aI351
aI375
aI222
aI187
aI158
aI175
aI130
aI162
aI142
aI137
aI217
aI189
aI129
aI92
aI179
aI146
aI159
aI206
aI158
aI162
aI140
aI109
aI87
aI147
aI147
aI154
aI89
aI91
aI147
aI69
aI167
aI192
aI169
aI132
aI103
aI74
aI71
aI126
aI116
aI110
aI95
aI119
aI92
aI82
aI80
aI106
aI92
aI217
aI102
aI130
aI112
aI111
aI76
aI99
aI136
aI71
aI127
aI72
aI94
aI102
aI112
aI65
aI117
aI74
aI111
aI114
aI123
aI146
aI50
aI96
aI158
aI138
aI89
aI80
aI94
aI181
aI54
aI77
aI152
aI103
aI75
aI51
aI144
aI91
aI52
aI116
aI110
aI105
aI76
aI67
aI168
aI56
aI73
aI86
aI106
aI160
aI162
aI144
aI120
aI74
aI141
aI163
aI172
aI144
aI137
aI122
aI116
aI103
aI113
aI142
aI105
aI53
aI209
aI184
aI120
aI198
aI101
aI120
aI116
aI155
aI79
aI177
aI77
aI121
aI95
aI90
aI90
aI129
aI106
aI111
aI110
aI49
aI90
aI77
aI137
aI100
aI85
aI114
aI112
aI101
aI104
aI90
aI97
aI70
aI82
aI79
aI103
aI92
aI96
aI124
aI94
aI78
aI90
aI67
aI88
aI92
aI58
aI52
aI82
aI63
aI56
aI63
aI119
aI135
aI113
aI141
aa(lp20
I92
aI100
aI170
aI56
aI135
aI128
aI80
aI77
aI78
aI49
aI27
aI55
aI69
aI62
aI57
aI47
aI58
aI42
aI45
aI54
aI58
aI90
aI91
aI53
aI44
aI77
aI186
aI106
aI195
aI74
aI62
aI73
aI92
aI68
aI124
aI99
aI62
aI52
aI28
aI95
aI80
aI114
aI121
aI42
aI85
aI49
aI42
aI53
aI85
aI79
aI99
aI62
aI63
aI81
aI82
aI80
aI85
aI48
aI57
aI58
aI46
aI108
aI71
aI62
aI168
aI54
aI77
aI68
aI47
aI65
aI44
aI78
aI41
aI52
aI65
aI52
aI81
aI80
aI45
aI99
aI101
aI83
aI61
aI95
aI223
aI88
aI134
aI144
aI95
aI140
aI138
aI81
aI69
aI117
aI55
aI51
aI74
aI57
aI94
aI98
aI84
aI75
aI57
aI64
aI55
aI57
aI57
aI50
aI73
aI69
aI58
aI116
aI87
aI73
aI46
aI67
aI85
aI59
aI79
aI174
aI82
aI53
aI108
aI93
aI63
aI74
aI73
aI92
aI77
aI184
aI52
aI57
aI71
aI50
aI52
aI138
aI48
aI50
aI168
aI61
aI573
aI178
aI70
aI45
aI79
aI77
aI90
aI97
aI54
aI69
aI187
aI42
aI90
aI178
aI51
aI50
aI39
aI68
aI45
aI55
aI53
aI30
aI67
aI64
aI101
aI59
aI102
aI51
aI53
aI121
aI63
aI149
aI60
aI52
aI74
aI56
aI61
aI124
aI103
aI92
aI75
aI80
aI69
aa(lp21
I168
aI218
aI331
aI267
aI432
aI351
aI420
aI456
aI269
aI388
aI429
aI274
aI325
aI272
aI284
aI377
aI282
aI239
aI250
aI684
aI1209
aI1638
aI1015
aI710
aI403
aI1433
aI562
aI790
aI758
aI533
aI410
aI568
aI243
aI575
aI430
aI478
aI582
aI419
aI241
aI380
aI426
aI576
aI345
aI233
aI357
aI243
aI381
aI257
aI398
aI442
aI320
aI276
aI309
aI443
aI446
aI369
aI213
aI409
aI266
aI343
aI675
aI353
aI638
aI309
aI217
aI1429
aI476
aI410
aI201
aI397
aI290
aI266
aI271
aI487
aI426
aI325
aI783
aI3136
aI1282
aI895
aI683
aI652
aI506
aI878
aI699
aI467
aI562
aI392
aI507
aI1148
aI909
aI700
aI391
aI424
aI458
aI412
aI368
aI376
aI391
aI342
aI409
aI781
aI638
aI379
aI418
aI925
aI438
aI505
aI630
aI459
aI340
aI702
aI382
aI716
aI568
aI450
aI528
aI272
aI488
aI487
aI618
aI885
aI378
aI769
aI506
aI583
aI354
aI923
aI482
aI341
aI341
aI439
aI356
aI447
aI491
aI677
aI397
aI796
aI383
aI521
aI464
aI246
aI369
aI644
aI446
aI576
aI421
aI853
aI610
aI450
aI553
aI668
aI487
aI568
aI503
aI738
aI392
aI653
aI617
aI339
aI499
aI492
aI264
aI509
aI382
aI408
aI432
aI575
aI711
aI345
aI495
aI359
aI290
aI625
aI463
aI425
aI299
aI225
aI320
aI534
aI383
aI349
aI559
aa(lp22
I4
aI4
aI15
aI2
aI26
aI8
aI3
aI5
aI3
aI11
aI3
aI20
aI1
aI5
aI6
aI2
aI6
aI2
aI6
aI16
aI2
aI3
aI3
aI2
aI2
aI6
aI6
aI1
aI15
aI1
aI6
aI6
aI8
aI6
aI7
aI2
aI5
aI4
aI12
aI5
aI6
aI8
aI3
aI11
aI3
aI6
aI1
aI3
aI3
aI9
aI15
aI5
aI4
aI2
aI2
aI4
aI6
aI3
aI6
aI1
aI5
aI4
aI5
aI1
aI6
aI7
aI1
aI4
aI8
aI12
aI8
aI4
aI2
aI2
aI3
aI5
aI8
aI2
aI4
aI1
aI2
aI7
aI4
aI3
aI3
aI9
aI2
aI7
aI4
aI6
aI6
aI1
aI3
aI3
aI3
aI2
aI7
aI11
aI7
aI1
aI1
aI3
aI2
aI4
aI15
aI4
aI2
aI2
aI1
aI4
aI7
aI1
aI3
aI2
aI3
aI5
aI2
aI6
aI6
aI5
aI4
aI13
aI7
aI7
aI1
aI3
aI1
aI10
aI6
aI3
aI3
aI4
aI6
aI2
aI3
aI3
aI2
aI1
aI2
aI7
aI2
aI1
aI1
aI5
aI3
aI11
aI5
aI8
aI11
aI5
aI6
aI4
aI9
aI11
aI4
aI21
aI2
aI2
aI3
aI14
aI4
aI7
aI1
aI13
aI3
aI4
aI10
aI5
aI2
aI8
aI13
aI11
aI25
aI3
aI6
aa(lp23
I75
aI67
aI40
aI43
aI61
aI37
aI48
aI55
aI69
aI68
aI97
aI51
aI28
aI46
aI37
aI45
aI41
aI47
aI32
aI49
aI91
aI44
aI103
aI54
aI32
aI68
aI96
aI91
aI43
aI46
aI116
aI41
aI59
aI180
aI74
aI78
aI267
aI123
aI113
aI52
aI53
aI106
aI51
aI34
aI64
aI34
aI75
aI87
aI94
aI117
aI63
aI62
aI45
aI38
aI54
aI54
aI120
aI40
aI59
aI32
aI61
aI52
aI102
aI71
aI50
aI63
aI83
aI96
aI95
aI87
aI51
aI154
aI56
aI55
aI67
aI85
aI64
aI134
aI145
aI53
aI63
aI57
aI74
aI88
aI95
aI59
aI88
aI56
aI97
aI62
aI111
aI78
aI162
aI60
aI52
aI104
aI52
aI70
aI102
aI60
aI128
aI46
aI44
aI37
aI69
aI113
aI53
aI61
aI67
aI69
aI64
aI119
aI39
aI44
aI64
aI81
aI98
aI61
aI72
aI72
aI47
aI80
aI53
aI46
aI64
aI80
aI62
aI59
aI82
aI103
aI121
aI118
aI150
aI65
aI67
aI143
aI72
aI80
aI82
aI51
aI93
aI68
aI89
aI84
aI102
aI92
aI97
aI71
aI86
aI48
aI63
aI78
aI43
aI77
aI137
aI58
aI49
aI70
aI130
aI58
aI96
aI59
aI96
aI82
aI82
aI40
aI71
aI62
aI46
aI66
aI46
aI49
aI60
aI54
aI66
aI57
aI46
aI67
aI171
aI46
aI72
aI81
aI82
aa(lp24
I13
aI17
aI8
aI7
aI5
aI11
aI12
aI20
aI7
aI10
aI4
aI8
aI14
aI13
aI5
aI11
aI9
aI10
aI12
aI12
aI12
aI21
aI14
aI11
aI12
aI52
aI10
aI10
aI37
aI15
aI2
aI11
aI23
aI13
aI27
aI33
aI16
aI21
aI34
aI14
aI8
aI7
aI17
aI12
aI24
aI7
aI13
aI11
aI12
aI19
aI13
aI13
aI4
aI13
aI7
aI12
aI11
aI10
aI14
aI14
aI20
aI9
aI38
aI10
aI5
aI16
aI12
aI15
aI10
aI10
aI19
aI14
aI19
aI9
aI25
aI16
aI12
aI24
aI17
aI6
aI57
aI9
aI18
aI7
aI6
aI13
aI7
aI12
aI35
aI10
aI14
aI10
aI9
aI24
aI4
aI8
aI15
aI15
aI28
aI6
aI8
aI21
aI14
aI38
aI15
aI20
aI13
aI6
aI7
aI8
aI9
aI19
aI11
aI14
aI6
aI5
aI3
aI12
aI10
aI15
aI5
aI10
aI7
aI3
aI9
aI7
aI13
aI16
aI39
aI17
aI13
aI4
aI11
aI26
aI17
aI27
aI14
aI14
aI12
aI16
aI11
aI8
aI8
aI2
aI11
aI9
aI9
aI1
aI8
aI5
aI21
aI9
aI18
aI62
aI16
aI8
aI16
aI10
aI6
aI11
aI14
aI16
aI6
aI8
aI76
aI39
aI33
aI24
aI16
aI29
aI15
aI16
aI27
aI40
aI37
aI24
aI17
aI35
aI45
aI30
aI75
aI46
aI32
aa(lp25
I91
aI44
aI111
aI96
aI81
aI86
aI146
aI50
aI88
aI91
aI70
aI50
aI112
aI91
aI62
aI55
aI65
aI150
aI95
aI42
aI103
aI162
aI67
aI59
aI79
aI49
aI71
aI122
aI125
aI140
aI73
aI127
aI134
aI137
aI61
aI126
aI87
aI65
aI105
aI76
aI81
aI86
aI74
aI79
aI72
aI88
aI78
aI109
aI84
aI64
aI93
aI119
aI101
aI98
aI108
aI158
aI70
aI74
aI134
aI44
aI72
aI97
aI252
aI145
aI48
aI110
aI101
aI50
aI123
aI290
aI77
aI187
aI97
aI141
aI74
aI64
aI72
aI87
aI182
aI136
aI82
aI85
aI80
aI130
aI110
aI82
aI82
aI94
aI91
aI46
aI107
aI87
aI59
aI47
aI75
aI87
aI92
aI68
aI124
aI59
aI63
aI203
aI78
aI47
aI127
aI152
aI49
aI736
aI75
aI140
aI81
aI119
aI80
aI84
aI63
aI71
aI82
aI207
aI126
aI68
aI85
aI79
aI87
aI88
aI113
aI105
aI93
aI181
aI59
aI109
aI108
aI114
aI104
aI130
aI111
aI78
aI226
aI122
aI87
aI205
aI114
aI117
aI92
aI103
aI163
aI234
aI157
aI161
aI110
aI89
aI68
aI59
aI121
aI119
aI60
aI153
aI243
aI316
aI108
aI80
aI97
aI85
aI94
aI253
aI76
aI78
aI73
aI160
aI340
aI69
aI134
aI91
aI169
aI196
aI99
aI105
aI150
aI67
aI140
aI133
aI166
aI251
aI158
aa(lp26
I42
aI9
aI4
aI7
aI18
aI4
aI28
aI8
aI23
aI12
aI5
aI21
aI17
aI23
aI22
aI9
aI9
aI7
aI25
aI13
aI36
aI9
aI4
aI7
aI24
aI11
aI17
aI19
aI26
aI17
aI32
aI28
aI18
aI22
aI39
aI31
aI30
aI34
aI8
aI8
aI17
aI10
aI11
aI12
aI14
aI9
aI11
aI18
aI15
aI22
aI14
aI14
aI12
aI18
aI8
aI25
aI24
aI14
aI11
aI6
aI7
aI21
aI19
aI17
aI37
aI32
aI20
aI13
aI20
aI12
aI26
aI10
aI17
aI5
aI15
aI7
aI28
aI9
aI12
aI13
aI21
aI3
aI12
aI9
aI17
aI10
aI23
aI20
aI25
aI10
aI21
aI25
aI13
aI7
aI15
aI14
aI8
aI16
aI14
aI16
aI17
aI17
aI8
aI11
aI13
aI7
aI18
aI15
aI18
aI17
aI12
aI7
aI13
aI6
aI11
aI8
aI22
aI33
aI19
aI12
aI25
aI24
aI56
aI18
aI25
aI21
aI28
aI10
aI25
aI29
aI24
aI30
aI17
aI23
aI24
aI34
aI37
aI23
aI33
aI37
aI24
aI24
aI28
aI28
aI16
aI12
aI14
aI15
aI24
aI30
aI20
aI9
aI24
aI31
aI30
aI27
aI34
aI17
aI34
aI45
aI20
aI48
aI31
aI39
aI70
aI35
aI26
aI40
aI32
aI22
aI30
aI40
aI54
aI46
aI37
aI45
aI30
aI29
aI30
aI32
aI42
aI84
aI59
aa(lp27
I18
aI36
aI15
aI27
aI24
aI32
aI13
aI100
aI26
aI20
aI17
aI23
aI51
aI31
aI23
aI13
aI25
aI13
aI109
aI22
aI25
aI17
aI23
aI13
aI7
aI21
aI17
aI14
aI20
aI31
aI32
aI10
aI10
aI28
aI12
aI12
aI34
aI37
aI41
aI16
aI26
aI53
aI19
aI28
aI18
aI32
aI43
aI39
aI31
aI40
aI34
aI67
aI57
aI45
aI35
aI47
aI32
aI26
aI27
aI30
aI19
aI25
aI19
aI34
aI21
aI53
aI16
aI19
aI24
aI26
aI17
aI24
aI34
aI12
aI51
aI23
aI42
aI13
aI13
aI9
aI26
aI36
aI39
aI58
aI22
aI9
aI26
aI56
aI36
aI26
aI32
aI31
aI18
aI25
aI30
aI27
aI42
aI13
aI28
aI50
aI36
aI69
aI59
aI32
aI29
aI55
aI58
aI24
aI27
aI51
aI61
aI35
aI24
aI28
aI35
aI55
aI38
aI47
aI48
aI35
aI58
aI59
aI67
aI26
aI67
aI73
aI85
aI34
aI34
aI36
aI27
aI88
aI88
aI48
aI44
aI38
aI64
aI44
aI54
aI71
aI60
aI54
aI35
aI84
aI80
aI85
aI66
aI124
aI58
aI44
aI37
aI69
aI41
aI107
aI71
aI33
aI51
aI67
aI59
aI48
aI49
aI58
aI74
aI134
aI100
aI53
aI58
aI54
aI56
aI132
aI151
aI119
aI43
aI146
aI57
aI176
aI79
aI63
aI89
aI50
aI53
aI36
aI55
aa(lp28
I100
aI116
aI85
aI94
aI103
aI85
aI104
aI113
aI130
aI46
aI108
aI125
aI137
aI111
aI127
aI163
aI148
aI105
aI167
aI103
aI142
aI198
aI172
aI191
aI219
aI140
aI188
aI167
aI160
aI206
aI194
aI181
aI156
aI116
aI160
aI161
aI172
aI142
aI129
aI201
aI103
aI98
aI101
aI125
aI94
aI280
aI79
aI94
aI114
aI123
aI66
aI110
aI108
aI94
aI96
aI103
aI147
aI151
aI101
aI156
aI86
aI83
aI59
aI91
aI138
aI100
aI85
aI144
aI114
aI214
aI113
aI57
aI71
aI79
aI68
aI92
aI66
aI95
aI68
aI93
aI65
aI51
aI163
aI66
aI52
aI70
aI43
aI90
aI48
aI55
aI102
aI92
aI51
aI78
aI67
aI56
aI77
aI73
aI75
aI69
aI160
aI70
aI52
aI37
aI34
aI102
aI38
aI88
aI76
aI66
aI70
aI74
aI69
aI75
aI44
aI38
aI40
aI48
aI63
aI57
aI48
aI85
aI48
aI50
aI59
aI35
aI34
aI66
aI130
aI128
aI58
aI34
aI55
aI99
aI67
aI62
aI62
aI36
aI52
aI53
aI69
aI60
aI155
aI65
aI134
aI61
aI96
aI40
aI50
aI45
aI57
aI130
aI52
aI127
aI67
aI84
aI77
aI89
aI45
aI55
aI95
aI53
aI62
aI47
aI53
aI66
aI39
aI57
aI144
aI39
aI96
aI81
aI68
aI101
aI98
aI45
aI25
aI52
aI115
aI96
aI130
aI46
aI37
aa(lp29
I4
aI4
aI3
aI11
aI3
aI4
aI1
aI5
aI1
aI5
aI9
aI9
aI6
aI2
aI5
aI5
aI8
aI55
aI19
aI20
aI4
aI4
aI4
aI10
aI3
aI11
aI5
aI6
aI11
aI11
aI3
aI7
aI11
aI6
aI5
aI26
aI6
aI3
aI5
aI10
aI5
aI3
aI21
aI4
aI5
aI4
aI17
aI6
aI14
aI10
aI6
aI14
aI10
aI7
aI7
aI13
aI7
aI26
aI19
aI26
aI18
aI10
aI12
aI8
aI4
aI13
aI8
aI2
aI9
aI13
aI7
aI10
aI10
aI18
aI10
aI5
aI7
aI4
aI9
aI7
aI7
aI48
aI7
aI5
aI13
aI4
aI2
aI1
aI12
aI8
aI7
aI10
aI3
aI5
aI4
aI1
aI5
aI4
aI10
aI12
aI5
aI11
aI12
aI5
aI12
aI64
aI10
aI2
aI2
aI45
aI8
aI8
aI5
aI4
aI5
aI7
aI24
aI4
aI1
aI8
aI6
aI8
aI3
aI17
aI6
aI6
aI5
aI2
aI18
aI11
aI5
aI2
aI7
aI6
aI6
aI3
aI2
aI3
aI4
aI10
aI3
aI1
aI16
aI15
aI26
aI1
aI2
aI7
aI16
aI4
aI16
aI106
aI4
aI13
aI5
aI159
aI47
aI23
aI21
aI33
aI5
aI7
aI4
aI12
aI8
aI11
aI4
aI8
aI13
aI32
aI47
aI28
aI4
aI7
aI8
aI19
aI17
aI11
aI5
aI5
aI10
aa(lp30
I26
aI59
aI61
aI48
aI65
aI58
aI102
aI92
aI53
aI58
aI77
aI108
aI128
aI72
aI76
aI88
aI38
aI41
aI133
aI104
aI123
aI169
aI150
aI113
aI225
aI133
aI189
aI147
aI156
aI172
aI142
aI134
aI192
aI174
aI97
aI175
aI219
aI224
aI154
aI160
aI139
aI141
aI177
aI120
aI131
aI105
aI132
aI161
aI98
aI200
aI154
aI127
aI85
aI108
aI74
aI49
aI63
aI31
aI35
aI41
aI49
aI38
aI44
aI32
aI50
aI45
aI54
aI53
aI108
aI27
aI55
aI58
aI73
aI39
aI58
aI49
aI46
aI142
aI38
aI34
aI53
aI45
aI29
aI32
aI48
aI26
aI64
aI26
aI61
aI36
aI49
aI58
aI31
aI53
aI53
aI42
aI33
aI34
aI34
aI33
aI33
aI31
aI49
aI32
aI35
aI35
aI51
aI36
aI44
aI25
aI27
aI35
aI38
aI35
aI35
aI16
aI36
aI35
aI43
aI45
aI22
aI53
aI39
aI38
aI44
aI30
aI35
aI17
aI34
aI56
aI30
aI62
aI45
aI40
aI48
aI33
aI32
aI29
aI29
aI31
aI26
aI21
aI50
aI43
aI51
aI33
aI25
aI23
aI35
aI27
aI28
aI90
aI53
aI62
aI47
aI69
aI72
aI27
aI71
aI40
aI39
aI58
aI42
aI34
aI47
aI38
aI41
aI41
aI44
aI49
aI46
aI33
aI49
aI39
aI63
aI65
aI44
aI75
aI41
aI46
aI48
aI49
aI57
aa(lp31
I22
aI20
aI31
aI107
aI17
aI11
aI52
aI11
aI16
aI13
aI23
aI33
aI49
aI81
aI18
aI71
aI62
aI35
aI7
aI21
aI32
aI19
aI86
aI20
aI13
aI24
aI25
aI19
aI19
aI26
aI26
aI48
aI51
aI32
aI16
aI28
aI39
aI68
aI24
aI12
aI31
aI82
aI60
aI78
aI57
aI56
aI58
aI92
aI30
aI52
aI37
aI52
aI22
aI20
aI22
aI43
aI21
aI40
aI50
aI32
aI68
aI10
aI23
aI90
aI36
aI57
aI27
aI22
aI42
aI131
aI42
aI8
aI9
aI20
aI52
aI41
aI35
aI43
aI13
aI38
aI52
aI33
aI29
aI33
aI37
aI29
aI39
aI128
aI47
aI15
aI23
aI67
aI31
aI84
aI24
aI43
aI24
aI19
aI20
aI25
aI79
aI31
aI25
aI22
aI72
aI17
aI20
aI19
aI26
aI15
aI23
aI68
aI22
aI55
aI27
aI30
aI56
aI14
aI26
aI30
aI18
aI25
aI15
aI23
aI27
aI23
aI47
aI26
aI28
aI26
aI23
aI9
aI24
aI24
aI19
aI24
aI12
aI23
aI20
aI20
aI30
aI20
aI15
aI40
aI25
aI18
aI45
aI74
aI48
aI24
aI22
aI25
aI87
aI79
aI75
aI51
aI85
aI60
aI51
aI44
aI43
aI43
aI16
aI24
aI34
aI15
aI49
aI23
aI31
aI25
aI40
aI33
aI20
aI61
aI20
aI21
aI55
aI40
aI31
aI38
aI54
aI41
aI92
aa(lp32
I179
aI152
aI229
aI214
aI280
aI219
aI321
aI188
aI327
aI205
aI193
aI224
aI236
aI277
aI218
aI171
aI126
aI159
aI144
aI194
aI135
aI312
aI159
aI183
aI172
aI214
aI173
aI134
aI185
aI216
aI206
aI106
aI143
aI127
aI146
aI214
aI154
aI112
aI106
aI112
aI101
aI106
aI122
aI263
aI304
aI322
aI199
aI138
aI197
aI168
aI130
aI141
aI154
aI120
aI158
aI186
aI201
aI123
aI115
aI196
aI139
aI118
aI112
aI146
aI155
aI110
aI140
aI172
aI96
aI136
aI114
aI110
aI127
aI106
aI163
aI134
aI111
aI135
aI130
aI140
aI142
aI134
aI145
aI127
aI174
aI133
aI149
aI144
aI113
aI97
aI119
aI133
aI112
aI128
aI112
aI86
aI88
aI106
aI144
aI268
aI106
aI130
aI126
aI123
aI108
aI116
aI147
aI129
aI145
aI160
aI129
aI207
aI151
aI142
aI115
aI95
aI119
aI110
aI126
aI164
aI128
aI137
aI196
aI146
aI147
aI176
aI214
aI139
aI131
aI111
aI395
aI346
aI407
aI215
aI173
aI180
aI150
aI182
aI132
aI120
aI159
aI118
aI625
aI598
aI194
aI146
aI152
aI133
aI195
aI300
aI202
aI209
aI175
aI129
aI143
aI272
aI129
aI127
aI128
aI121
aI170
aI239
aI131
aI97
aI96
aI97
aI140
aI142
aI111
aI163
aI167
aI161
aI160
aI272
aI233
aI218
aI158
aI187
aI175
aI207
aI193
aI170
aI176
aa(lp33
I16
aI5
aI6
aI13
aI17
aI13
aI2
aI14
aI21
aI5
aI13
aI47
aI10
aI18
aI11
aI3
aI25
aI8
aI5
aI2
aI11
aI8
aI3
aI14
aI17
aI14
aI5
aI22
aI66
aI69
aI16
aI28
aI13
aI20
aI21
aI22
aI17
aI16
aI23
aI20
aI11
aI21
aI14
aI22
aI18
aI18
aI12
aI17
aI10
aI14
aI7
aI10
aI7
aI7
aI20
aI27
aI22
aI32
aI15
aI10
aI7
aI35
aI16
aI23
aI16
aI4
aI6
aI11
aI22
aI18
aI7
aI15
aI20
aI11
aI12
aI20
aI16
aI30
aI10
aI30
aI25
aI41
aI18
aI25
aI47
aI27
aI7
aI13
aI8
aI10
aI10
aI14
aI7
aI15
aI5
aI16
aI17
aI7
aI11
aI9
aI20
aI14
aI12
aI14
aI2
aI100
aI34
aI14
aI7
aI33
aI18
aI53
aI20
aI15
aI11
aI19
aI12
aI8
aI18
aI5
aI8
aI25
aI19
aI24
aI17
aI39
aI14
aI10
aI12
aI15
aI7
aI32
aI11
aI19
aI27
aI33
aI7
aI15
aI7
aI11
aI10
aI11
aI6
aI16
aI9
aI9
aI10
aI17
aI7
aI22
aI12
aI9
aI12
aI15
aI33
aI7
aI9
aI41
aI6
aI10
aI6
aI12
aI11
aI8
aI56
aI8
aI11
aI10
aI5
aI8
aI10
aI30
aI5
aI13
aI15
aI7
aI29
aI35
aI41
aI15
aI56
aI47
aI11
aa(lp34
I7
aI14
aI23
aI23
aI5
aI62
aI26
aI18
aI74
aI23
aI10
aI25
aI18
aI18
aI13
aI19
aI77
aI107
aI42
aI45
aI36
aI92
aI90
aI184
aI166
aI110
aI142
aI152
aI191
aI199
aI166
aI101
aI76
aI82
aI72
aI67
aI101
aI51
aI55
aI89
aI36
aI64
aI53
aI68
aI52
aI63
aI65
aI54
aI70
aI63
aI48
aI59
aI91
aI63
aI34
aI40
aI35
aI79
aI49
aI98
aI53
aI56
aI50
aI71
aI44
aI40
aI42
aI37
aI50
aI50
aI59
aI42
aI39
aI92
aI100
aI56
aI33
aI59
aI40
aI25
aI92
aI25
aI33
aI42
aI37
aI44
aI77
aI66
aI124
aI68
aI113
aI82
aI58
aI94
aI87
aI97
aI91
aI93
aI105
aI66
aI50
aI68
aI50
aI48
aI47
aI51
aI40
aI76
aI41
aI52
aI87
aI65
aI66
aI52
aI50
aI37
aI54
aI33
aI47
aI59
aI32
aI37
aI37
aI66
aI66
aI62
aI46
aI46
aI38
aI48
aI58
aI28
aI53
aI64
aI42
aI62
aI54
aI50
aI45
aI49
aI44
aI57
aI38
aI41
aI61
aI46
aI44
aI37
aI47
aI34
aI77
aI36
aI30
aI95
aI53
aI33
aI32
aI49
aI40
aI63
aI64
aI77
aI35
aI47
aI128
aI52
aI52
aI37
aI41
aI53
aI62
aI111
aI153
aI135
aI99
aI74
aI62
aI40
aI55
aI68
aI46
aI54
aI154
aa(lp35
I1
aI2
aI2
aI1
aI2
aI3
aI3
aI1
aI2
aI1
aI1
aI2
aI1
aI1
aI30
aI1
aI2
aI1
aI1
aI1
aI10
aI1
aI1
aI1
aI1
aI2
aI2
aI2
aI1
aI6
aI1
aI4
aI1
aI2
aI11
aI2
aI6
aI2
aI1
aI1
aI2
aI1
aI1
aI3
aI3
aI2
aI1
aI3
aI1
aI2
aI1
aI4
aI1
aI2
aI5
aI2
aI4
aI1
aI1
aI1
aI1
aI21
aI1
aI1
aI2
aI1
aI1
aI2
aI1
aI1
aI1
aI1
aI1
aI1
aI1
aI2
aa(lp36
I23
aI14
aI27
aI24
aI16
aI10
aI16
aI22
aI22
aI58
aI24
aI30
aI42
aI34
aI23
aI25
aI15
aI29
aI22
aI29
aI28
aI22
aI24
aI20
aI26
aI23
aI32
aI10
aI25
aI36
aI20
aI18
aI22
aI27
aI18
aI39
aI22
aI28
aI24
aI20
aI26
aI45
aI28
aI18
aI32
aI19
aI19
aI29
aI30
aI30
aI27
aI30
aI28
aI25
aI50
aI47
aI29
aI18
aI34
aI23
aI21
aI29
aI34
aI36
aI19
aI13
aI51
aI28
aI18
aI21
aI20
aI33
aI30
aI43
aI42
aI134
aI37
aI26
aI11
aI37
aI24
aI66
aI39
aI45
aI30
aI25
aI19
aI14
aI56
aI24
aI31
aI35
aI31
aI13
aI25
aI34
aI19
aI37
aI18
aI31
aI18
aI28
aI16
aI14
aI21
aI26
aI7
aI14
aI20
aI33
aI31
aI20
aI15
aI24
aI9
aI21
aI18
aI31
aI24
aI22
aI30
aI20
aI24
aI25
aI50
aI17
aI23
aI24
aI26
aI32
aI32
aI32
aI26
aI32
aI56
aI17
aI36
aI21
aI13
aI36
aI30
aI16
aI21
aI25
aI30
aI30
aI32
aI14
aI26
aI50
aI26
aI26
aI18
aI16
aI11
aI16
aI21
aI18
aI46
aI20
aI16
aI31
aI17
aI24
aI31
aI10
aI15
aI20
aI30
aI45
aI16
aI16
aI25
aI30
aI16
aI28
aI39
aI28
aI61
aI70
aI87
aI26
aI33
aa(lp37
I16
aI7
aI10
aI10
aI12
aI15
aI18
aI6
aI4
aI18
aI33
aI3
aI12
aI9
aI5
aI6
aI4
aI7
aI10
aI11
aI24
aI7
aI11
aI23
aI11
aI15
aI12
aI22
aI9
aI38
aI14
aI12
aI15
aI29
aI30
aI12
aI12
aI17
aI5
aI8
aI9
aI9
aI20
aI7
aI8
aI7
aI9
aI13
aI15
aI18
aI3
aI19
aI10
aI5
aI7
aI30
aI18
aI5
aI3
aI2
aI8
aI7
aI14
aI23
aI25
aI33
aI11
aI8
aI9
aI16
aI15
aI205
aI2
aI8
aI12
aI14
aI31
aI24
aI14
aI11
aI8
aI7
aI5
aI25
aI10
aI26
aI6
aI17
aI22
aI12
aI11
aI17
aI17
aI4
aI8
aI10
aI8
aI14
aI17
aI16
aI5
aI25
aI10
aI19
aI10
aI12
aI22
aI7
aI11
aI24
aI12
aI15
aI4
aI24
aI14
aI4
aI18
aI4
aI9
aI55
aI28
aI25
aI9
aI18
aI22
aI16
aI27
aI14
aI22
aI16
aI13
aI23
aI31
aI7
aI38
aI30
aI16
aI12
aI8
aI17
aI8
aI10
aI9
aI8
aI15
aI5
aI10
aI7
aI3
aI8
aI7
aI183
aI20
aI21
aI11
aI6
aI17
aI45
aI11
aI22
aI17
aI24
aI25
aI28
aI18
aI25
aI31
aI17
aI8
aI21
aI27
aI25
aI20
aI11
aI10
aI7
aI17
aI34
aI60
aI23
aI58
aI27
aI21
aa(lp38
I93
aI158
aI120
aI211
aI176
aI147
aI110
aI162
aI157
aI122
aI109
aI140
aI232
aI358
aI212
aI199
aI205
aI132
aI167
aI139
aI155
aI147
aI108
aI114
aI125
aI128
aI155
aI134
aI88
aI172
aI124
aI116
aI172
aI125
aI178
aI338
aI181
aI209
aI246
aI191
aI85
aI144
aI145
aI98
aI210
aI128
aI83
aI91
aI133
aI98
aI130
aI112
aI152
aI112
aI216
aI87
aI153
aI214
aI113
aI91
aI87
aI87
aI171
aI142
aI205
aI105
aI82
aI115
aI128
aI129
aI196
aI148
aI120
aI281
aI322
aI284
aI174
aI149
aI102
aI181
aI146
aI130
aI101
aI312
aI231
aI142
aI131
aI202
aI144
aI94
aI87
aI90
aI80
aI106
aI87
aI137
aI97
aI102
aI94
aI135
aI108
aI156
aI149
aI114
aI213
aI129
aI144
aI143
aI189
aI211
aI288
aI97
aI137
aI83
aI94
aI122
aI115
aI113
aI141
aI186
aI112
aI81
aI506
aI420
aI420
aI286
aI493
aI335
aI145
aI180
aI100
aI94
aI170
aI115
aI279
aI238
aI184
aI116
aI97
aI196
aI163
aI96
aI113
aI155
aI116
aI141
aI168
aI97
aI123
aI171
aI108
aI135
aI92
aI99
aI109
aI184
aI88
aI137
aI65
aI66
aI335
aI344
aI175
aI248
aI158
aI124
aI109
aI128
aI124
aI93
aI84
aI140
aI71
aI92
aI141
aI191
aI85
aI87
aI108
aI146
aI251
aI81
aI104
aa(lp39
I74
aI133
aI65
aI71
aI69
aI57
aI55
aI58
aI118
aI69
aI58
aI123
aI92
aI72
aI111
aI54
aI64
aI127
aI92
aI124
aI96
aI113
aI63
aI94
aI132
aI66
aI96
aI99
aI69
aI98
aI90
aI108
aI105
aI183
aI99
aI212
aI97
aI81
aI51
aI146
aI89
aI88
aI71
aI73
aI72
aI74
aI94
aI77
aI72
aI81
aI70
aI74
aI65
aI100
aI154
aI55
aI110
aI58
aI62
aI109
aI122
aI72
aI107
aI85
aI66
aI62
aI72
aI78
aI64
aI58
aI94
aI71
aI67
aI79
aI78
aI84
aI99
aI111
aI93
aI85
aI106
aI150
aI95
aI113
aI84
aI100
aI120
aI87
aI102
aI92
aI77
aI97
aI77
aI70
aI96
aI103
aI55
aI64
aI119
aI75
aI102
aI113
aI84
aI79
aI56
aI67
aI55
aI149
aI46
aI81
aI64
aI119
aI76
aI121
aI52
aI70
aI54
aI96
aI95
aI98
aI98
aI107
aI64
aI130
aI65
aI98
aI86
aI76
aI44
aI77
aI126
aI114
aI70
aI101
aI93
aI102
aI70
aI139
aI64
aI59
aI85
aI224
aI129
aI72
aI70
aI70
aI65
aI86
aI66
aI65
aI61
aI82
aI71
aI91
aI96
aI51
aI123
aI75
aI107
aI99
aI100
aI79
aI70
aI75
aI107
aI82
aI97
aI56
aI92
aI81
aI121
aI64
aI85
aI93
aI116
aI158
aI112
aI77
aI161
aI100
aI111
aI178
aI110
aa(lp40
I18
aI25
aI23
aI15
aI29
aI15
aI23
aI13
aI6
aI30
aI8
aI31
aI23
aI24
aI19
aI18
aI11
aI8
aI9
aI11
aI5
aI6
aI3
aI3
aI4
aI17
aI6
aI2
aI5
aI6
aI5
aI18
aI7
aI6
aI19
aI12
aI8
aI6
aI14
aI13
aI4
aI9
aI6
aI6
aI4
aI5
aI10
aI12
aI5
aI4
aI11
aI11
aI3
aI10
aI2
aI6
aI8
aI15
aI5
aI10
aI6
aI5
aI9
aI5
aI8
aI14
aI6
aI4
aI12
aI15
aI2
aI8
aI11
aI5
aI4
aI5
aI1
aI5
aI2
aI8
aI2
aI13
aI2
aI14
aI6
aI10
aI7
aI4
aI4
aI1
aI5
aI5
aI3
aI3
aI5
aI3
aI10
aI25
aI3
aI5
aI2
aI8
aI4
aI1
aI11
aI13
aI3
aI2
aI3
aI4
aI7
aI4
aI1
aI3
aI5
aI3
aI1
aI10
aI7
aI2
aI8
aI14
aI3
aI5
aI8
aI2
aI9
aI13
aI2
aI4
aI3
aI5
aI4
aI2
aI6
aI2
aI6
aI3
aI3
aI4
aI3
aI8
aI4
aI5
aI2
aI1
aI7
aI4
aI12
aI2
aI4
aI5
aI5
aI1
aI22
aI5
aI2
aI5
aI4
aI4
aI3
aI5
aI7
aI9
aI12
aI9
aI5
aI2
aI2
aI3
aI6
aI18
aI14
aI3
aI1
aI4
aI5
aI9
aI4
aI17
aa(lp41
I73
aI61
aI87
aI99
aI104
aI120
aI304
aI326
aI163
aI76
aI85
aI95
aI91
aI48
aI85
aI45
aI51
aI35
aI59
aI89
aI42
aI22
aI26
aI35
aI24
aI33
aI83
aI124
aI85
aI51
aI41
aI65
aI87
aI60
aI49
aI44
aI54
aI58
aI51
aI36
aI47
aI46
aI57
aI75
aI53
aI48
aI57
aI40
aI46
aI43
aI25
aI38
aI56
aI42
aI35
aI46
aI46
aI29
aI30
aI31
aI20
aI50
aI61
aI47
aI48
aI56
aI112
aI32
aI25
aI46
aI68
aI40
aI36
aI41
aI35
aI29
aI31
aI56
aI50
aI54
aI53
aI28
aI45
aI38
aI31
aI123
aI36
aI44
aI109
aI23
aI22
aI31
aI41
aI32
aI22
aI42
aI161
aI397
aI294
aI385
aI133
aI92
aI140
aI95
aI67
aI94
aI64
aI110
aI94
aI63
aI90
aI48
aI42
aI64
aI23
aI35
aI55
aI39
aI65
aI57
aI40
aI38
aI36
aI27
aI98
aI47
aI51
aI49
aI41
aI77
aI69
aI88
aI88
aI89
aI107
aI106
aI94
aI55
aI73
aI70
aI97
aI61
aI83
aI33
aI47
aI45
aI48
aI35
aI35
aI39
aI56
aI90
aI74
aI74
aI58
aI42
aI40
aI45
aI57
aI41
aI40
aI37
aI36
aI64
aI43
aI29
aI41
aI46
aI45
aI32
aI48
aI33
aI29
aI35
aI29
aI48
aI48
aI45
aI51
aI40
aI45
aI33
aI101
aa(lp42
I263
aI176
aI76
aI203
aI67
aI132
aI140
aI90
aI93
aI152
aI179
aI163
aI104
aI200
aI86
aI115
aI181
aI73
aI79
aI154
aI126
aI105
aI77
aI246
aI195
aI136
aI224
aI116
aI107
aI329
aI164
aI109
aI151
aI87
aI129
aI159
aI249
aI149
aI74
aI169
aI71
aI160
aI117
aI131
aI184
aI208
aI112
aI175
aI238
aI204
aI224
aI282
aI183
aI132
aI189
aI130
aI248
aI247
aI115
aI187
aI121
aI276
aI107
aI155
aI124
aI117
aI169
aI105
aI181
aI96
aI175
aI122
aI102
aI181
aI166
aI86
aI178
aI122
aI202
aI158
aI164
aI166
aI126
aI140
aI107
aI114
aI140
aI201
aI124
aI117
aI152
aI141
aI194
aI187
aI115
aI127
aI140
aI208
aI180
aI164
aI87
aI106
aI121
aI100
aI167
aI210
aI176
aI92
aI181
aI140
aI129
aI127
aI156
aI155
aI109
aI151
aI226
aI137
aI175
aI219
aI264
aI151
aI111
aI220
aI97
aI106
aI125
aI181
aI203
aI311
aI214
aI87
aI114
aI188
aI204
aI220
aI157
aI54
aI116
aI165
aI77
aI104
aI94
aI182
aI85
aI148
aI181
aI91
aI143
aI83
aI157
aI93
aI126
aI131
aI93
aI102
aI75
aI85
aI234
aI65
aI128
aI129
aI71
aI186
aI153
aI85
aI183
aI87
aI172
aI49
aI94
aI152
aI61
aI103
aI155
aI95
aI163
aI96
aI140
aI68
aI116
aI178
aI137
aa(lp43
I27
aI16
aI31
aI42
aI126
aI16
aI25
aI62
aI51
aI19
aI96
aI18
aI15
aI96
aI19
aI12
aI57
aI43
aI10
aI66
aI81
aI17
aI63
aI19
aI163
aI140
aI50
aI23
aI41
aI116
aI68
aI36
aI37
aI96
aI61
aI22
aI26
aI28
aI52
aI21
aI12
aI131
aI67
aI13
aI38
aI34
aI21
aI29
aI15
aI43
aI30
aI10
aI39
aI47
aI44
aI29
aI89
aI21
aI27
aI17
aI32
aI50
aI73
aI18
aI14
aI50
aI20
aI69
aI16
aI19
aI21
aI29
aI19
aI13
aI34
aI132
aI36
aI47
aI11
aI33
aI8
aI10
aI32
aI17
aI59
aI20
aI30
aI14
aI12
aI20
aI51
aI47
aI22
aI15
aI22
aI28
aI18
aI20
aI83
aI31
aI40
aI41
aI24
aI8
aI20
aI24
aI32
aI45
aI30
aI44
aI75
aI16
aI32
aI19
aI118
aI81
aI24
aI24
aI33
aI17
aI15
aI28
aI21
aI62
aI58
aI88
aI12
aI12
aI105
aI11
aI37
aI29
aI106
aI23
aI11
aI24
aI24
aI62
aI35
aI36
aI27
aI18
aI28
aI19
aI21
aI44
aI26
aI26
aI72
aI48
aI126
aI23
aI20
aI17
aI35
aI23
aI14
aI12
aI18
aI40
aI73
aI105
aI11
aI28
aI22
aI36
aI26
aI17
aI11
aI15
aI27
aI29
aI15
aI16
aI31
aI20
aI18
aI12
aI23
aI17
aI33
aI17
aI35
aa(lp44
I19
aI19
aI40
aI111
aI69
aI34
aI27
aI78
aI47
aI109
aI13
aI45
aI32
aI14
aI16
aI5
aI8
aI27
aI8
aI14
aI13
aI31
aI15
aI7
aI15
aI32
aI17
aI9
aI17
aI14
aI46
aI10
aI27
aI8
aI13
aI17
aI11
aI4
aI16
aI20
aI17
aI35
aI2
aI9
aI18
aI16
aI8
aI12
aI7
aI9
aI22
aI9
aI2
aI40
aI23
aI9
aI12
aI19
aI29
aI5
aI22
aI21
aI43
aI18
aI18
aI27
aI20
aI11
aI33
aI22
aI32
aI12
aI22
aI17
aI12
aI8
aI15
aI27
aI16
aI48
aI33
aI40
aI22
aI17
aI25
aI30
aI8
aI47
aI13
aI9
aI29
aI10
aI41
aI7
aI20
aI20
aI21
aI24
aI19
aI26
aI24
aI3
aI7
aI6
aI17
aI36
aI19
aI10
aI8
aI13
aI13
aI10
aI50
aI8
aI11
aI10
aI8
aI10
aI17
aI8
aI85
aI14
aI8
aI17
aI11
aI28
aI8
aI8
aI13
aI8
aI6
aI27
aI14
aI19
aI19
aI17
aI11
aI12
aI9
aI15
aI10
aI14
aI7
aI10
aI12
aI6
aI4
aI8
aI11
aI11
aI107
aI21
aI15
aI5
aI4
aI28
aI16
aI11
aI28
aI13
aI16
aI32
aI12
aI45
aI19
aI11
aI16
aI12
aI11
aI10
aI13
aI19
aI18
aI13
aI24
aI9
aI28
aI26
aI18
aI8
aI98
aI24
aI19
aa(lp45
I30
aI71
aI213
aI156
aI163
aI143
aI137
aI116
aI185
aI138
aI190
aI190
aI149
aI141
aI194
aI77
aI111
aI177
aI116
aI68
aI65
aI107
aI95
aI60
aI70
aI45
aI224
aI68
aI61
aI103
aI172
aI91
aI110
aI93
aI271
aI92
aI137
aI94
aI63
aI111
aI79
aI63
aI76
aI107
aI72
aI69
aI104
aI80
aI95
aI88
aI73
aI111
aI173
aI119
aI75
aI40
aI66
aI76
aI68
aI134
aI45
aI65
aI47
aI68
aI50
aI32
aI29
aI34
aI42
aI70
aI27
aI14
aI36
aI64
aI44
aI14
aI17
aI53
aI76
aI51
aI30
aI30
aI45
aI18
aI28
aI39
aI77
aI15
aI34
aI28
aI19
aI32
aI20
aI17
aI28
aI25
aI37
aI35
aI27
aI36
aI19
aI44
aI40
aI138
aI37
aI39
aI39
aI69
aI42
aI23
aI34
aI26
aI27
aI16
aI18
aI10
aI30
aI38
aI44
aI40
aI21
aI49
aI137
aI34
aI21
aI36
aI16
aI23
aI59
aI21
aI33
aI25
aI28
aI39
aI15
aI24
aI33
aI15
aI17
aI14
aI25
aI27
aI29
aI18
aI28
aI27
aI11
aI17
aI24
aI23
aI33
aI56
aI19
aI120
aI25
aI15
aI21
aI26
aI26
aI25
aI17
aI56
aI19
aI9
aI17
aI25
aI12
aI16
aI23
aI27
aI22
aI17
aI25
aI17
aI18
aI17
aI26
aI25
aI50
aI18
aI22
aI28
aI30
aa(lp46
I77
aI55
aI89
aI52
aI78
aI36
aI41
aI51
aI27
aI47
aI40
aI39
aI50
aI52
aI81
aI82
aI27
aI46
aI72
aI41
aI90
aI83
aI51
aI56
aI31
aI42
aI51
aI87
aI58
aI134
aI47
aI107
aI64
aI72
aI62
aI48
aI63
aI51
aI59
aI87
aI112
aI83
aI64
aI43
aI46
aI34
aI85
aI144
aI99
aI54
aI44
aI80
aI89
aI100
aI70
aI46
aI49
aI74
aI108
aI43
aI98
aI88
aI51
aI58
aI37
aI168
aI134
aI144
aI97
aI85
aI104
aI72
aI60
aI89
aI153
aI132
aI106
aI84
aI90
aI86
aI271
aI115
aI75
aI91
aI87
aI69
aI53
aI47
aI102
aI85
aI67
aI100
aI35
aI50
aI48
aI100
aI498
aI598
aI533
aI433
aI369
aI140
aI184
aI84
aI219
aI174
aI153
aI203
aI284
aI87
aI216
aI60
aI66
aI82
aI84
aI54
aI91
aI65
aI73
aI139
aI85
aI82
aI87
aI102
aI71
aI115
aI70
aI70
aI74
aI105
aI103
aI50
aI94
aI79
aI35
aI69
aI77
aI57
aI64
aI117
aI65
aI233
aI146
aI63
aI49
aI82
aI76
aI79
aI75
aI98
aI69
aI63
aI86
aI78
aI57
aI85
aI97
aI65
aI63
aI50
aI175
aI129
aI104
aI217
aI75
aI56
aI96
aI175
aI151
aI97
aI103
aI96
aI69
aI99
aI73
aI87
aI83
aI108
aI88
aI95
aI130
aI49
aI112
aa(lp47
I42
aI58
aI37
aI41
aI34
aI41
aI36
aI35
aI40
aI30
aI32
aI25
aI36
aI26
aI72
aI75
aI28
aI26
aI38
aI54
aI42
aI26
aI24
aI39
aI32
aI26
aI32
aI38
aI56
aI24
aI41
aI29
aI38
aI37
aI33
aI45
aI44
aI26
aI45
aI38
aI40
aI66
aI25
aI55
aI80
aI48
aI101
aI29
aI40
aI42
aI26
aI83
aI30
aI34
aI59
aI57
aI47
aI53
aI28
aI34
aI28
aI43
aI42
aI110
aI75
aI28
aI36
aI102
aI108
aI182
aI123
aI82
aI85
aI103
aI97
aI76
aI70
aI56
aI77
aI41
aI52
aI47
aI65
aI84
aI53
aI104
aI41
aI39
aI23
aI43
aI52
aI78
aI30
aI25
aI36
aI24
aI43
aI52
aI43
aI53
aI33
aI71
aI42
aI30
aI59
aI42
aI35
aI21
aI30
aI82
aI50
aI52
aI32
aI30
aI37
aI41
aI46
aI27
aI58
aI45
aI45
aI29
aI28
aI67
aI54
aI51
aI35
aI42
aI67
aI40
aI40
aI34
aI41
aI43
aI45
aI50
aI59
aI38
aI41
aI35
aI48
aI85
aI69
aI498
aI918
aI1073
aI704
aI662
aI623
aI559
aI532
aI445
aI502
aI435
aI382
aI375
aI436
aI254
aI165
aI205
aI196
aI187
aI279
aI383
aI329
aI164
aI185
aI177
aI238
aI193
aI213
aI143
aI108
aI138
aI221
aI133
aI134
aI93
aI136
aI191
aI132
aI118
aI104
aa(lp48
I10
aI61
aI84
aI19
aI69
aI46
aI17
aI32
aI16
aI150
aI219
aI83
aI139
aI38
aI6
aI16
aI33
aI4
aI4
aI17
aI7
aI7
aI4
aI8
aI6
aI6
aI24
aI15
aI5
aI31
aI12
aI31
aI24
aI14
aI4
aI5
aI27
aI3
aI7
aI48
aI24
aI13
aI4
aI51
aI66
aI30
aI57
aI96
aI31
aI34
aI36
aI22
aI29
aI19
aI17
aI28
aI5
aI8
aI10
aI18
aI2
aI27
aI3
aI17
aI20
aI36
aI31
aI5
aI10
aI6
aI4
aI7
aI6
aI6
aI7
aI13
aI88
aI6
aI12
aI17
aI10
aI4
aI4
aI14
aI11
aI19
aI46
aI169
aI36
aI17
aI18
aI15
aI24
aI16
aI16
aI15
aI11
aI24
aI12
aI7
aI40
aI7
aI6
aI11
aI33
aI32
aI5
aI7
aI1
aI120
aI91
aI10
aI37
aI19
aI14
aI22
aI18
aI8
aI40
aI7
aI52
aI24
aI19
aI23
aI8
aI6
aI26
aI9
aI24
aI69
aI43
aI93
aI60
aI59
aI27
aI14
aI10
aI10
aI3
aI19
aI14
aI7
aI11
aI8
aI17
aI5
aI14
aI66
aI42
aI31
aI9
aI18
aI6
aI34
aI14
aI24
aI34
aI3
aI7
aI9
aI49
aI6
aI13
aI2
aI34
aI18
aI9
aI9
aI5
aI41
aI58
aI6
aI4
aI4
aI28
aI17
aI292
aI7
aI6
aI2
aI6
aI9
aI8
aa(lp49
I40
aI11
aI50
aI79
aI35
aI27
aI7
aI5
aI16
aI24
aI15
aI23
aI25
aI24
aI28
aI32
aI38
aI23
aI100
aI29
aI19
aI39
aI27
aI45
aI20
aI15
aI32
aI21
aI27
aI14
aI21
aI36
aI61
aI31
aI32
aI53
aI37
aI30
aI25
aI17
aI19
aI33
aI29
aI20
aI43
aI44
aI41
aI25
aI35
aI31
aI36
aI28
aI22
aI22
aI20
aI33
aI40
aI26
aI37
aI63
aI16
aI16
aI20
aI8
aI20
aI29
aI20
aI20
aI53
aI26
aI28
aI18
aI18
aI18
aI44
aI23
aI45
aI27
aI27
aI21
aI102
aI99
aI30
aI48
aI35
aI20
aI20
aI24
aI19
aI8
aI19
aI56
aI18
aI21
aI17
aI32
aI17
aI37
aI27
aI15
aI19
aI17
aI21
aI13
aI29
aI31
aI29
aI26
aI24
aI46
aI23
aI13
aI37
aI42
aI48
aI22
aI301
aI26
aI75
aI34
aI21
aI38
aI32
aI41
aI41
aI53
aI24
aI28
aI23
aI55
aI33
aI40
aI31
aI57
aI32
aI94
aI54
aI28
aI60
aI21
aI37
aI48
aI30
aI56
aI50
aI29
aI46
aI56
aI69
aI35
aI41
aI118
aI27
aI37
aI23
aI69
aI34
aI41
aI51
aI22
aI31
aI30
aI28
aI69
aI21
aI16
aI48
aI72
aI69
aI38
aI66
aI40
aI83
aI163
aI22
aI33
aI33
aI39
aI71
aI61
aI54
aI44
aI60
aa(lp50
I23
aI9
aI9
aI13
aI15
aI11
aI15
aI17
aI14
aI12
aI17
aI23
aI11
aI13
aI13
aI17
aI15
aI17
aI36
aI46
aI26
aI18
aI14
aI31
aI17
aI13
aI27
aI31
aI29
aI43
aI11
aI12
aI56
aI32
aI33
aI29
aI26
aI29
aI29
aI37
aI26
aI42
aI23
aI22
aI37
aI15
aI16
aI19
aI35
aI20
aI27
aI19
aI42
aI31
aI23
aI19
aI11
aI16
aI16
aI15
aI16
aI23
aI16
aI54
aI25
aI39
aI16
aI18
aI18
aI15
aI22
aI31
aI21
aI13
aI19
aI16
aI32
aI16
aI22
aI41
aI32
aI24
aI28
aI37
aI20
aI54
aI16
aI10
aI13
aI22
aI24
aI17
aI12
aI14
aI24
aI16
aI22
aI27
aI15
aI18
aI19
aI18
aI17
aI30
aI13
aI21
aI28
aI20
aI11
aI26
aI14
aI19
aI26
aI10
aI11
aI12
aI10
aI46
aI23
aI16
aI19
aI16
aI35
aI12
aI42
aI53
aI14
aI14
aI19
aI22
aI11
aI35
aI25
aI18
aI23
aI47
aI21
aI11
aI21
aI29
aI21
aI19
aI13
aI21
aI14
aI14
aI18
aI16
aI15
aI25
aI12
aI24
aI23
aI25
aI9
aI17
aI9
aI12
aI8
aI9
aI12
aI20
aI18
aI20
aI39
aI13
aI34
aI23
aI9
aI23
aI10
aI15
aI15
aI73
aI22
aI13
aI23
aI15
aI25
aI32
aI18
aI13
aI16
aa(lp51
I32
aI18
aI17
aI21
aI30
aI26
aI51
aI29
aI14
aI37
aI85
aI24
aI27
aI25
aI28
aI22
aI51
aI10
aI10
aI34
aI15
aI24
aI18
aI15
aI28
aI19
aI28
aI29
aI35
aI31
aI36
aI15
aI37
aI45
aI50
aI70
aI44
aI24
aI74
aI11
aI20
aI8
aI131
aI22
aI11
aI26
aI19
aI15
aI31
aI42
aI16
aI23
aI19
aI19
aI22
aI45
aI20
aI11
aI15
aI16
aI13
aI14
aI9
aI23
aI16
aI11
aI13
aI28
aI24
aI34
aI25
aI17
aI15
aI17
aI11
aI16
aI12
aI10
aI23
aI11
aI17
aI11
aI26
aI27
aI16
aI15
aI16
aI14
aI7
aI16
aI21
aI9
aI18
aI12
aI7
aI29
aI9
aI30
aI12
aI21
aI63
aI18
aI22
aI19
aI34
aI12
aI13
aI18
aI7
aI11
aI13
aI13
aI13
aI6
aI15
aI14
aI17
aI37
aI14
aI22
aI24
aI17
aI282
aI15
aI51
aI26
aI18
aI58
aI30
aI36
aI14
aI15
aI23
aI12
aI62
aI45
aI78
aI33
aI18
aI18
aI19
aI12
aI3
aI16
aI3
aI10
aI29
aI12
aI22
aI19
aI19
aI21
aI4
aI9
aI8
aI16
aI13
aI14
aI20
aI10
aI20
aI66
aI18
aI6
aI19
aI21
aI11
aI21
aI10
aI8
aI38
aI4
aI9
aI6
aI8
aI29
aI10
aI14
aI10
aI13
aI18
aI15
aI3
aa.