(lp1
(lp2
I74
aI63
aI76
aI74
aI93
aI114
aI108
aI76
aI86
aI128
aI81
aI72
aI96
aI92
aI93
aI117
aI154
aI173
aI104
aI98
aI160
aI166
aI135
aI147
aI178
aI153
aI134
aI129
aI122
aI148
aI117
aI159
aI159
aI171
aI126
aI260
aI182
aI199
aI130
aI141
aI156
aI176
aI89
aI141
aI152
aI172
aI125
aI141
aI151
aI155
aI148
aI135
aI191
aI162
aI181
aI234
aI182
aI168
aI235
aI186
aI213
aI170
aI177
aI220
aI159
aI190
aI191
aI175
aI240
aI190
aI169
aI176
aI248
aI328
aI384
aI416
aI275
aI277
aI221
aI218
aI217
aI221
aI247
aI279
aI283
aI204
aI177
aI192
aI261
aI218
aI171
aI291
aI249
aI234
aI245
aI266
aI250
aI281
aI259
aI376
aI239
aI213
aI256
aI215
aI168
aI239
aI213
aI241
aI220
aI286
aI221
aI198
aI182
aI207
aI214
aI231
aI284
aI283
aI197
aI244
aI265
aI225
aI195
aI189
aI201
aI251
aI250
aI211
aI238
aI197
aI228
aI201
aI185
aI222
aI188
aI224
aI218
aI161
aI233
aI188
aI151
aI202
aI196
aI181
aI227
aI176
aI160
aI189
aI214
aI240
aI269
aI279
aI331
aI241
aI227
aI232
aI207
aI243
aI220
aI236
aI220
aI205
aI233
aI187
aI202
aI206
aI209
aI215
aI180
aI199
aI191
aI210
aI292
aI237
aI215
aI182
aI298
aI215
aI184
aI280
aI254
aI232
aI193
aa(lp3
I30
aI34
aI55
aI24
aI28
aI18
aI41
aI48
aI39
aI31
aI43
aI38
aI24
aI25
aI21
aI32
aI34
aI61
aI33
aI44
aI24
aI31
aI43
aI55
aI66
aI36
aI48
aI95
aI44
aI42
aI74
aI101
aI75
aI93
aI76
aI49
aI64
aI57
aI63
aI79
aI65
aI48
aI76
aI48
aI81
aI66
aI61
aI88
aI47
aI71
aI68
aI78
aI87
aI72
aI111
aI93
aI124
aI82
aI148
aI117
aI125
aI150
aI74
aI103
aI104
aI95
aI105
aI90
aI120
aI98
aI79
aI64
aI112
aI149
aI130
aI129
aI104
aI131
aI148
aI143
aI123
aI122
aI177
aI123
aI88
aI138
aI92
aI101
aI98
aI109
aI92
aI83
aI121
aI111
aI163
aI109
aI122
aI95
aI135
aI127
aI154
aI133
aI168
aI101
aI92
aI107
aI93
aI134
aI136
aI168
aI156
aI101
aI67
aI138
aI127
aI126
aI121
aI110
aI148
aI91
aI213
aI100
aI151
aI225
aI258
aI141
aI205
aI158
aI217
aI114
aI148
aI135
aI172
aI79
aI208
aI158
aI166
aI149
aI113
aI85
aI153
aI141
aI131
aI97
aI159
aI124
aI91
aI185
aI115
aI120
aI123
aI143
aI184
aI230
aI127
aI236
aI162
aI238
aI215
aI217
aI167
aI171
aI278
aI248
aI199
aI150
aI177
aI133
aI175
aI203
aI144
aI199
aI156
aI172
aI153
aI140
aI293
aI214
aI274
aI266
aI178
aI146
aI158
aa(lp4
I1388
aI1415
aI1503
aI1866
aI1496
aI1262
aI1483
aI1263
aI1219
aI1260
aI1486
aI1501
aI1619
aI1711
aI1639
aI1438
aI1588
aI1463
aI1502
aI1801
aI1559
aI1419
aI1414
aI1554
aI1664
aI1589
aI1595
aI1459
aI1631
aI2749
aI3261
aI2560
aI2311
aI2044
aI2214
aI1968
aI2216
aI1980
aI1820
aI2060
aI2190
aI2030
aI1791
aI1736
aI1805
aI1869
aI1713
aI1839
aI1972
aI2077
aI1753
aI2008
aI1957
aI1858
aI2010
aI2002
aI2208
aI2027
aI2082
aI2328
aI1898
aI1816
aI1776
aI1957
aI2320
aI2235
aI2272
aI1803
aI2033
aI1845
aI1904
aI1606
aI2160
aI1965
aI1985
aI2341
aI1729
aI1772
aI1743
aI1973
aI2066
aI2084
aI2119
aI2007
aI1964
aI1996
aI1980
aI1955
aI2079
aI1780
aI1659
aI1795
aI1841
aI2026
aI1837
aI2037
aI1762
aI1889
aI1805
aI1831
aI2022
aI1738
aI1901
aI2019
aI1925
aI1759
aI1666
aI1815
aI1857
aI1842
aI1861
aI1651
aI1930
aI2358
aI2475
aI2455
aI2843
aI2401
aI2120
aI2099
aI2365
aI2492
aI2155
aI2249
aI2280
aI2086
aI2024
aI2016
aI1911
aI1998
aI2090
aI2062
aI1959
aI1890
aI2068
aI2227
aI2264
aI2550
aI2515
aI2008
aI2392
aI2067
aI2330
aI2443
aI1882
aI2087
aI1804
aI1746
aI1779
aI2147
aI1816
aI2033
aI2078
aI1703
aI1735
aI1860
aI1971
aI1877
aI2032
aI2156
aI2063
aI1822
aI2192
aI1859
aI2277
aI1731
aI1906
aI1847
aI1914
aI2059
aI1938
aI1793
aI2185
aI2191
aI1826
aI2058
aI2020
aI1827
aI1971
aI1996
aI2080
aI2012
aI1972
aa(lp5
I70
aI66
aI52
aI53
aI45
aI103
aI47
aI97
aI114
aI55
aI49
aI54
aI57
aI126
aI65
aI56
aI75
aI47
aI65
aI64
aI58
aI92
aI57
aI48
aI59
aI92
aI61
aI74
aI51
aI58
aI34
aI105
aI75
aI45
aI49
aI40
aI52
aI46
aI56
aI65
aI36
aI54
aI49
aI65
aI42
aI50
aI54
aI42
aI48
aI56
aI55
aI101
aI63
aI65
aI130
aI88
aI84
aI110
aI157
aI148
aI59
aI154
aI805
aI1311
aI1151
aI403
aI313
aI222
aI232
aI256
aI200
aI238
aI164
aI193
aI291
aI177
aI139
aI254
aI171
aI137
aI164
aI158
aI171
aI175
aI218
aI200
aI195
aI227
aI347
aI449
aI758
aI1140
aI1318
aI1322
aI1014
aI1188
aI717
aI681
aI690
aI738
aI726
aI622
aI516
aI506
aI364
aI480
aI402
aI401
aI335
aI436
aI327
aI353
aI301
aI410
aI387
aI280
aI261
aI319
aI236
aI263
aI243
aI316
aI391
aI307
aI257
aI243
aI208
aI306
aI259
aI225
aI219
aI227
aI171
aI282
aI223
aI204
aI202
aI194
aI192
aI147
aI191
aI171
aI154
aI167
aI223
aI287
aI210
aI198
aI287
aI205
aI166
aI229
aI174
aI143
aI141
aI184
aI177
aI182
aI179
aI178
aI184
aI183
aI202
aI191
aI219
aI159
aI143
aI139
aI142
aI203
aI143
aI152
aI161
aI163
aI121
aI141
aI134
aI140
aI158
aI144
aI157
aI174
aI156
aa(lp6
I353
aI321
aI387
aI410
aI716
aI425
aI440
aI396
aI307
aI338
aI398
aI395
aI477
aI500
aI425
aI461
aI402
aI398
aI528
aI542
aI463
aI476
aI472
aI488
aI377
aI370
aI423
aI397
aI344
aI383
aI384
aI483
aI533
aI573
aI474
aI493
aI509
aI490
aI577
aI484
aI637
aI867
aI836
aI622
aI545
aI650
aI594
aI546
aI482
aI493
aI597
aI643
aI513
aI539
aI613
aI499
aI519
aI501
aI565
aI433
aI499
aI451
aI484
aI593
aI544
aI533
aI560
aI474
aI573
aI530
aI415
aI486
aI659
aI705
aI601
aI549
aI558
aI606
aI414
aI489
aI665
aI476
aI497
aI599
aI604
aI492
aI528
aI469
aI425
aI578
aI464
aI511
aI465
aI464
aI443
aI564
aI481
aI486
aI437
aI644
aI622
aI492
aI551
aI543
aI411
aI578
aI465
aI473
aI549
aI709
aI566
aI439
aI499
aI855
aI786
aI613
aI632
aI621
aI565
aI672
aI661
aI703
aI630
aI670
aI590
aI673
aI554
aI684
aI776
aI681
aI763
aI984
aI1013
aI914
aI1060
aI1098
aI914
aI852
aI928
aI849
aI786
aI940
aI732
aI712
aI775
aI784
aI676
aI769
aI711
aI699
aI700
aI708
aI787
aI603
aI585
aI666
aI701
aI683
aI694
aI550
aI547
aI571
aI634
aI615
aI626
aI634
aI653
aI671
aI529
aI645
aI621
aI666
aI892
aI721
aI527
aI556
aI642
aI619
aI673
aI669
aI661
aI601
aI690
aa(lp7
I264
aI282
aI196
aI223
aI305
aI142
aI128
aI152
aI182
aI171
aI166
aI116
aI158
aI136
aI147
aI171
aI145
aI118
aI156
aI161
aI187
aI190
aI232
aI159
aI133
aI151
aI195
aI153
aI152
aI240
aI256
aI356
aI190
aI242
aI302
aI328
aI378
aI258
aI335
aI283
aI325
aI293
aI275
aI377
aI385
aI381
aI250
aI335
aI358
aI364
aI347
aI335
aI315
aI284
aI270
aI413
aI366
aI418
aI399
aI301
aI232
aI305
aI276
aI262
aI347
aI310
aI292
aI319
aI306
aI580
aI343
aI334
aI442
aI324
aI322
aI278
aI358
aI354
aI308
aI348
aI315
aI256
aI261
aI317
aI491
aI328
aI357
aI367
aI300
aI258
aI405
aI301
aI372
aI366
aI378
aI249
aI281
aI421
aI313
aI521
aI436
aI302
aI283
aI338
aI308
aI302
aI420
aI357
aI308
aI317
aI273
aI303
aI420
aI396
aI355
aI363
aI264
aI264
aI320
aI322
aI387
aI349
aI326
aI294
aI328
aI310
aI335
aI345
aI376
aI394
aI279
aI317
aI440
aI360
aI454
aI464
aI320
aI382
aI286
aI349
aI401
aI390
aI445
aI337
aI270
aI285
aI398
aI318
aI324
aI298
aI294
aI345
aI275
aI280
aI273
aI320
aI501
aI302
aI229
aI216
aI295
aI246
aI378
aI351
aI284
aI205
aI246
aI350
aI385
aI475
aI498
aI309
aI304
aI351
aI254
aI326
aI342
aI352
aI318
aI303
aI225
aI246
aI192
aa(lp8
I528
aI383
aI474
aI554
aI493
aI737
aI527
aI384
aI401
aI557
aI701
aI469
aI610
aI572
aI609
aI720
aI553
aI644
aI675
aI675
aI614
aI669
aI540
aI513
aI506
aI629
aI690
aI517
aI615
aI807
aI706
aI734
aI791
aI771
aI800
aI801
aI811
aI863
aI766
aI956
aI752
aI719
aI687
aI647
aI808
aI918
aI880
aI768
aI1036
aI831
aI766
aI842
aI824
aI818
aI941
aI794
aI681
aI817
aI779
aI815
aI791
aI851
aI696
aI666
aI690
aI760
aI876
aI785
aI836
aI761
aI652
aI725
aI779
aI953
aI1143
aI1155
aI1070
aI1149
aI1021
aI1035
aI985
aI995
aI877
aI944
aI929
aI857
aI927
aI1080
aI1019
aI984
aI787
aI884
aI960
aI998
aI963
aI939
aI931
aI847
aI842
aI935
aI881
aI1178
aI1009
aI914
aI776
aI852
aI849
aI805
aI823
aI991
aI936
aI658
aI747
aI857
aI862
aI992
aI998
aI923
aI846
aI852
aI800
aI852
aI883
aI905
aI924
aI932
aI849
aI936
aI1031
aI983
aI908
aI898
aI909
aI878
aI866
aI843
aI795
aI844
aI757
aI668
aI813
aI998
aI1024
aI1008
aI904
aI975
aI773
aI947
aI825
aI788
aI830
aI760
aI722
aI741
aI719
aI723
aI751
aI912
aI924
aI896
aI788
aI882
aI874
aI962
aI857
aI834
aI915
aI936
aI926
aI865
aI855
aI936
aI848
aI914
aI758
aI983
aI783
aI886
aI873
aI866
aI774
aI749
aI726
aa(lp9
I584
aI477
aI469
aI545
aI644
aI679
aI625
aI718
aI779
aI676
aI737
aI794
aI960
aI932
aI552
aI747
aI563
aI736
aI848
aI829
aI1048
aI980
aI875
aI836
aI941
aI851
aI805
aI731
aI912
aI868
aI1083
aI958
aI939
aI1106
aI1155
aI961
aI933
aI860
aI909
aI928
aI1020
aI1019
aI975
aI962
aI1064
aI967
aI1081
aI1030
aI928
aI1220
aI964
aI1028
aI961
aI1037
aI977
aI812
aI1020
aI1030
aI988
aI834
aI1083
aI840
aI1004
aI1354
aI1230
aI994
aI1358
aI1462
aI1081
aI1141
aI863
aI881
aI1192
aI1115
aI1111
aI970
aI766
aI1164
aI920
aI1058
aI912
aI1183
aI1249
aI1184
aI1073
aI1233
aI1300
aI1154
aI1266
aI992
aI840
aI1005
aI1211
aI1038
aI1169
aI980
aI1028
aI963
aI928
aI996
aI965
aI1023
aI1133
aI1097
aI719
aI910
aI1117
aI845
aI807
aI782
aI924
aI739
aI825
aI1031
aI809
aI843
aI950
aI959
aI820
aI752
aI783
aI874
aI809
aI852
aI790
aI970
aI822
aI920
aI847
aI844
aI1603
aI1713
aI1550
aI1431
aI1660
aI1456
aI1151
aI1053
aI1068
aI896
aI863
aI987
aI840
aI974
aI859
aI1169
aI4501
aI5403
aI5425
aI5025
aI4854
aI4143
aI4132
aI4127
aI3684
aI5366
aI4675
aI4603
aI4266
aI4199
aI3569
aI3618
aI3478
aI3361
aI3500
aI3590
aI3238
aI2609
aI2443
aI3267
aI2656
aI2629
aI2452
aI2580
aI2199
aI2196
aI2493
aI2346
aI2368
aI2248
aI2276
aI2647
aI2338
aa(lp10
I252
aI335
aI264
aI265
aI245
aI325
aI269
aI337
aI223
aI283
aI374
aI279
aI254
aI354
aI280
aI302
aI242
aI298
aI253
aI313
aI369
aI327
aI258
aI312
aI244
aI345
aI299
aI362
aI313
aI254
aI267
aI359
aI515
aI503
aI338
aI379
aI379
aI395
aI345
aI340
aI365
aI309
aI472
aI455
aI417
aI408
aI378
aI436
aI550
aI389
aI331
aI381
aI362
aI487
aI391
aI409
aI429
aI405
aI292
aI268
aI337
aI409
aI399
aI375
aI363
aI302
aI248
aI399
aI284
aI344
aI411
aI324
aI354
aI429
aI365
aI550
aI497
aI441
aI464
aI563
aI469
aI426
aI518
aI710
aI539
aI569
aI493
aI498
aI391
aI484
aI486
aI480
aI385
aI338
aI393
aI430
aI548
aI434
aI514
aI540
aI447
aI344
aI426
aI391
aI443
aI364
aI441
aI435
aI459
aI400
aI433
aI536
aI424
aI577
aI470
aI581
aI550
aI629
aI691
aI544
aI665
aI637
aI716
aI588
aI604
aI433
aI624
aI564
aI520
aI547
aI646
aI612
aI473
aI463
aI642
aI502
aI497
aI674
aI462
aI343
aI478
aI663
aI515
aI538
aI403
aI597
aI706
aI666
aI405
aI707
aI513
aI618
aI470
aI521
aI407
aI556
aI461
aI437
aI374
aI566
aI372
aI399
aI445
aI400
aI436
aI472
aI513
aI392
aI463
aI487
aI475
aI477
aI507
aI383
aI298
aI361
aI506
aI634
aI577
aI585
aI486
aI469
aI354
aa(lp11
I535
aI655
aI575
aI746
aI523
aI528
aI475
aI588
aI438
aI597
aI415
aI428
aI516
aI516
aI620
aI610
aI480
aI484
aI601
aI575
aI491
aI512
aI539
aI541
aI577
aI630
aI580
aI552
aI446
aI519
aI605
aI612
aI596
aI575
aI574
aI551
aI708
aI653
aI698
aI661
aI691
aI571
aI730
aI599
aI902
aI581
aI637
aI709
aI701
aI869
aI672
aI711
aI643
aI626
aI793
aI716
aI649
aI552
aI832
aI779
aI850
aI736
aI660
aI765
aI776
aI856
aI827
aI610
aI635
aI654
aI716
aI694
aI711
aI689
aI895
aI687
aI744
aI856
aI749
aI719
aI858
aI859
aI649
aI807
aI754
aI785
aI792
aI766
aI752
aI723
aI721
aI722
aI627
aI787
aI764
aI750
aI894
aI768
aI678
aI726
aI725
aI618
aI744
aI852
aI714
aI718
aI864
aI806
aI780
aI802
aI734
aI757
aI595
aI721
aI741
aI806
aI859
aI695
aI640
aI739
aI967
aI840
aI851
aI851
aI882
aI943
aI791
aI818
aI820
aI776
aI748
aI907
aI740
aI797
aI877
aI846
aI875
aI818
aI866
aI742
aI619
aI842
aI676
aI757
aI772
aI683
aI728
aI691
aI752
aI787
aI979
aI833
aI832
aI719
aI796
aI778
aI861
aI730
aI856
aI1031
aI648
aI1051
aI878
aI915
aI901
aI757
aI825
aI728
aI769
aI858
aI985
aI767
aI845
aI901
aI744
aI738
aI759
aI920
aI712
aI781
aI922
aI862
aI887
aa(lp12
I85
aI77
aI47
aI72
aI89
aI61
aI90
aI126
aI81
aI89
aI71
aI89
aI63
aI72
aI75
aI126
aI91
aI96
aI48
aI69
aI107
aI74
aI80
aI75
aI77
aI109
aI72
aI84
aI110
aI159
aI128
aI123
aI136
aI112
aI100
aI131
aI139
aI108
aI114
aI113
aI198
aI127
aI169
aI106
aI105
aI125
aI135
aI113
aI155
aI122
aI111
aI113
aI140
aI99
aI135
aI129
aI145
aI89
aI119
aI190
aI129
aI113
aI100
aI127
aI115
aI112
aI125
aI142
aI128
aI122
aI159
aI151
aI194
aI150
aI141
aI147
aI205
aI151
aI127
aI147
aI134
aI153
aI113
aI117
aI161
aI101
aI95
aI102
aI77
aI97
aI92
aI91
aI119
aI141
aI97
aI118
aI112
aI128
aI163
aI104
aI147
aI127
aI110
aI143
aI141
aI92
aI125
aI98
aI130
aI115
aI157
aI156
aI257
aI165
aI125
aI111
aI177
aI184
aI178
aI142
aI116
aI151
aI98
aI117
aI130
aI79
aI105
aI143
aI129
aI137
aI133
aI119
aI105
aI119
aI113
aI128
aI173
aI159
aI116
aI97
aI102
aI134
aI92
aI98
aI128
aI102
aI110
aI131
aI140
aI101
aI100
aI110
aI118
aI105
aI87
aI135
aI109
aI116
aI114
aI127
aI115
aI92
aI136
aI133
aI119
aI114
aI126
aI90
aI102
aI127
aI133
aI129
aI118
aI117
aI170
aI124
aI123
aI182
aI130
aI118
aI120
aI126
aI111
aa(lp13
I279
aI347
aI388
aI299
aI289
aI295
aI276
aI303
aI359
aI254
aI325
aI310
aI276
aI288
aI311
aI290
aI348
aI268
aI306
aI297
aI283
aI279
aI276
aI355
aI212
aI254
aI317
aI353
aI280
aI262
aI332
aI326
aI311
aI344
aI342
aI317
aI344
aI312
aI399
aI516
aI351
aI327
aI357
aI272
aI340
aI311
aI425
aI405
aI335
aI358
aI368
aI312
aI465
aI345
aI352
aI326
aI309
aI376
aI339
aI346
aI302
aI253
aI288
aI311
aI302
aI263
aI266
aI297
aI335
aI343
aI327
aI354
aI327
aI1236
aI1758
aI1453
aI960
aI640
aI506
aI613
aI763
aI543
aI504
aI489
aI488
aI453
aI502
aI451
aI481
aI514
aI412
aI396
aI372
aI451
aI462
aI425
aI344
aI380
aI415
aI334
aI485
aI303
aI261
aI318
aI302
aI314
aI385
aI398
aI307
aI298
aI299
aI278
aI268
aI376
aI324
aI304
aI333
aI309
aI355
aI327
aI292
aI375
aI378
aI410
aI333
aI328
aI269
aI363
aI446
aI319
aI334
aI293
aI299
aI296
aI290
aI298
aI367
aI347
aI402
aI261
aI340
aI332
aI262
aI365
aI345
aI369
aI810
aI701
aI813
aI802
aI707
aI631
aI723
aI822
aI689
aI710
aI597
aI573
aI501
aI564
aI522
aI514
aI482
aI544
aI618
aI605
aI456
aI450
aI506
aI506
aI492
aI580
aI586
aI446
aI403
aI452
aI396
aI385
aI451
aI467
aI450
aI451
aI358
aa(lp14
I2
aI8
aI15
aI26
aI87
aI8
aI22
aI12
aI5
aI17
aI12
aI21
aI18
aI12
aI19
aI13
aI13
aI13
aI13
aI24
aI26
aI12
aI12
aI10
aI13
aI16
aI17
aI16
aI12
aI15
aI13
aI4
aI16
aI19
aI28
aI24
aI36
aI11
aI133
aI16
aI10
aI11
aI27
aI3
aI10
aI23
aI14
aI11
aI26
aI8
aI14
aI19
aI14
aI9
aI16
aI11
aI11
aI18
aI10
aI23
aI13
aI14
aI28
aI21
aI13
aI11
aI15
aI14
aI63
aI100
aI25
aI30
aI32
aI35
aI15
aI20
aI21
aI19
aI8
aI22
aI16
aI11
aI25
aI21
aI23
aI16
aI14
aI20
aI13
aI26
aI15
aI13
aI18
aI27
aI40
aI40
aI40
aI24
aI12
aI17
aI22
aI35
aI19
aI18
aI19
aI16
aI17
aI23
aI14
aI11
aI19
aI25
aI17
aI21
aI16
aI14
aI11
aI14
aI7
aI14
aI12
aI12
aI8
aI14
aI16
aI11
aI17
aI35
aI13
aI10
aI18
aI14
aI16
aI15
aI13
aI17
aI15
aI13
aI11
aI11
aI14
aI10
aI18
aI11
aI26
aI16
aI8
aI7
aI10
aI15
aI9
aI12
aI9
aI10
aI10
aI11
aI20
aI16
aI13
aI8
aI8
aI12
aI18
aI16
aI31
aI11
aI23
aI15
aI8
aI27
aI18
aI13
aI18
aI23
aI13
aI11
aI15
aI16
aI29
aI11
aI16
aI30
aI26
aa(lp15
I26
aI26
aI71
aI54
aI33
aI34
aI101
aI53
aI36
aI153
aI42
aI60
aI25
aI180
aI7
aI16
aI23
aI14
aI103
aI52
aI57
aI136
aI21
aI16
aI9
aI13
aI42
aI41
aI23
aI15
aI23
aI17
aI16
aI103
aI41
aI37
aI26
aI40
aI79
aI35
aI34
aI22
aI56
aI13
aI116
aI120
aI111
aI37
aI87
aI49
aI70
aI32
aI24
aI40
aI56
aI78
aI83
aI84
aI27
aI28
aI27
aI82
aI28
aI13
aI84
aI97
aI12
aI92
aI24
aI22
aI17
aI55
aI49
aI70
aI28
aI67
aI33
aI38
aI43
aI43
aI19
aI31
aI27
aI42
aI16
aI27
aI33
aI76
aI58
aI28
aI29
aI52
aI42
aI37
aI28
aI28
aI36
aI82
aI27
aI140
aI72
aI130
aI101
aI45
aI29
aI58
aI51
aI23
aI60
aI58
aI31
aI38
aI47
aI85
aI90
aI100
aI61
aI56
aI40
aI34
aI38
aI61
aI34
aI65
aI74
aI54
aI36
aI57
aI49
aI74
aI31
aI39
aI87
aI101
aI31
aI31
aI27
aI21
aI43
aI40
aI31
aI46
aI40
aI37
aI33
aI70
aI42
aI37
aI58
aI33
aI35
aI30
aI118
aI40
aI27
aI20
aI23
aI45
aI25
aI51
aI72
aI50
aI19
aI63
aI78
aI32
aI44
aI44
aI64
aI15
aI14
aI30
aI27
aI16
aI24
aI30
aI34
aI58
aI16
aI25
aI34
aI25
aI35
aa(lp16
I1651
aI1407
aI1564
aI1569
aI1409
aI1471
aI1528
aI1375
aI1335
aI1490
aI1536
aI1444
aI1441
aI1352
aI1520
aI1475
aI1332
aI1630
aI1632
aI1578
aI1545
aI1597
aI1748
aI1522
aI1620
aI1528
aI1507
aI1400
aI1477
aI1511
aI1699
aI2051
aI1975
aI2012
aI1593
aI1783
aI1921
aI1817
aI1855
aI1733
aI1869
aI2104
aI2180
aI1965
aI1915
aI1974
aI1804
aI1570
aI1817
aI1665
aI1794
aI1945
aI2061
aI1880
aI1936
aI1867
aI2037
aI1802
aI1872
aI2087
aI1700
aI1841
aI1783
aI1712
aI1796
aI2124
aI2102
aI2524
aI2750
aI2622
aI2475
aI2534
aI2873
aI2746
aI2522
aI2490
aI2256
aI2337
aI2440
aI2508
aI2492
aI2450
aI2542
aI2157
aI2421
aI2319
aI2442
aI2466
aI2443
aI2261
aI2256
aI2304
aI2450
aI2585
aI2470
aI2666
aI2520
aI2549
aI2244
aI2225
aI2429
aI2157
aI2224
aI2230
aI2182
aI1929
aI2149
aI2276
aI2473
aI2126
aI2462
aI2013
aI1949
aI2212
aI2291
aI2441
aI2397
aI2549
aI2238
aI1903
aI2542
aI2217
aI2422
aI2623
aI2595
aI2408
aI2413
aI2540
aI2660
aI2808
aI2885
aI2544
aI2472
aI2177
aI2973
aI2511
aI2737
aI3258
aI3119
aI3198
aI3702
aI4464
aI4046
aI4292
aI4698
aI4188
aI4413
aI4818
aI5272
aI4159
aI4070
aI3955
aI3929
aI3293
aI2608
aI3230
aI3287
aI3084
aI3020
aI3115
aI2754
aI2610
aI2998
aI3201
aI2863
aI2560
aI2678
aI2542
aI2468
aI2550
aI2763
aI2840
aI2706
aI2612
aI2300
aI2082
aI2503
aI2244
aI2625
aI2576
aI2389
aI2318
aI1980
aa(lp17
I455
aI366
aI359
aI5713
aI8489
aI4138
aI3104
aI3122
aI2325
aI2121
aI4197
aI4564
aI3587
aI2522
aI2473
aI2391
aI2682
aI4109
aI3930
aI4688
aI3782
aI3374
aI3480
aI2836
aI4377
aI6668
aI5359
aI3606
aI4517
aI4467
aI4522
aI3472
aI2659
aI2996
aI3713
aI3266
aI3100
aI2610
aI3280
aI2827
aI2483
aI1857
aI2013
aI1905
aI1843
aI1945
aI1681
aI1568
aI1518
aI1777
aI1373
aI1146
aI1166
aI1241
aI980
aI1319
aI1146
aI1358
aI1356
aI1073
aI1297
aI1964
aI1750
aI973
aI1244
aI1082
aI1027
aI1205
aI1095
aI1262
aI1377
aI960
aI1366
aI879
aI1008
aI803
aI912
aI1144
aI1061
aI1125
aI886
aI1105
aI937
aI884
aI1135
aI1349
aI1001
aI998
aI946
aI1126
aI1176
aI1017
aI1372
aI1220
aI824
aI1019
aI964
aI966
aI834
aI903
aI1069
aI970
aI1210
aI1010
aI915
aI862
aI966
aI1782
aI1266
aI1174
aI1233
aI1014
aI760
aI1025
aI1181
aI935
aI785
aI874
aI1010
aI789
aI1243
aI1102
aI702
aI653
aI984
aI1074
aI939
aI711
aI931
aI1233
aI836
aI848
aI983
aI1017
aI868
aI1207
aI1163
aI830
aI722
aI941
aI822
aI857
aI1081
aI824
aI855
aI438
aI884
aI553
aI627
aI913
aI973
aI780
aI762
aI944
aI1000
aI878
aI705
aI748
aI740
aI753
aI654
aI683
aI915
aI812
aI832
aI1307
aI1134
aI950
aI783
aI1464
aI1145
aI793
aI563
aI981
aI615
aI821
aI783
aI924
aI979
aI919
aI581
aI561
aI488
aa(lp18
I47
aI47
aI49
aI68
aI67
aI63
aI47
aI36
aI58
aI284
aI143
aI162
aI142
aI133
aI107
aI175
aI290
aI390
aI363
aI401
aI349
aI331
aI385
aI277
aI249
aI216
aI231
aI285
aI216
aI172
aI226
aI169
aI225
aI203
aI161
aI173
aI144
aI227
aI181
aI176
aI163
aI177
aI157
aI159
aI145
aI154
aI165
aI182
aI197
aI186
aI168
aI211
aI182
aI199
aI174
aI177
aI178
aI189
aI218
aI151
aI238
aI163
aI139
aI174
aI156
aI178
aI217
aI194
aI171
aI130
aI164
aI219
aI244
aI177
aI172
aI173
aI182
aI224
aI197
aI167
aI184
aI202
aI196
aI183
aI199
aI243
aI172
aI234
aI168
aI180
aI181
aI190
aI194
aI165
aI260
aI157
aI134
aI140
aI216
aI181
aI201
aI226
aI282
aI189
aI196
aI201
aI123
aI192
aI210
aI222
aI302
aI189
aI135
aI163
aI189
aI203
aI243
aI212
aI307
aI134
aI184
aI139
aI136
aI180
aI186
aI181
aI212
aI190
aI252
aI222
aI245
aI205
aI200
aI227
aI199
aI204
aI194
aI186
aI177
aI171
aI134
aI162
aI185
aI152
aI200
aI187
aI160
aI126
aI143
aI156
aI186
aI141
aI276
aI96
aI133
aI170
aI224
aI155
aI145
aI179
aI176
aI162
aI215
aI204
aI197
aI213
aI218
aI160
aI154
aI192
aI184
aI225
aI287
aI172
aI136
aI129
aI132
aI166
aI167
aI147
aI191
aI124
aI137
aa(lp19
I677
aI536
aI535
aI460
aI780
aI542
aI835
aI523
aI595
aI503
aI538
aI941
aI1232
aI2843
aI4634
aI4678
aI3807
aI2434
aI2501
aI1945
aI1931
aI1567
aI1555
aI1342
aI1227
aI1658
aI1221
aI1471
aI1297
aI1157
aI1293
aI1255
aI1079
aI1001
aI992
aI1154
aI1088
aI974
aI1163
aI937
aI1062
aI1324
aI1323
aI1160
aI1053
aI1275
aI1318
aI1045
aI1047
aI929
aI985
aI937
aI1125
aI905
aI990
aI1096
aI934
aI986
aI914
aI1090
aI867
aI870
aI866
aI829
aI949
aI939
aI821
aI886
aI1092
aI803
aI788
aI810
aI815
aI820
aI865
aI771
aI754
aI716
aI1012
aI694
aI730
aI700
aI682
aI727
aI888
aI784
aI933
aI724
aI691
aI670
aI740
aI832
aI782
aI829
aI829
aI960
aI857
aI792
aI890
aI772
aI901
aI763
aI806
aI891
aI716
aI702
aI741
aI741
aI814
aI854
aI714
aI884
aI856
aI908
aI844
aI839
aI736
aI772
aI880
aI1160
aI899
aI734
aI700
aI671
aI784
aI780
aI890
aI760
aI795
aI799
aI880
aI728
aI631
aI653
aI704
aI686
aI761
aI888
aI824
aI631
aI750
aI737
aI669
aI787
aI984
aI746
aI745
aI737
aI654
aI764
aI972
aI860
aI910
aI785
aI639
aI647
aI730
aI823
aI777
aI762
aI907
aI827
aI809
aI905
aI736
aI659
aI788
aI943
aI843
aI775
aI911
aI725
aI822
aI669
aI674
aI691
aI621
aI617
aI636
aI674
aI840
aI796
aI675
aa(lp20
I372
aI246
aI309
aI346
aI306
aI255
aI310
aI316
aI289
aI233
aI250
aI270
aI268
aI356
aI285
aI304
aI282
aI292
aI298
aI375
aI340
aI334
aI306
aI290
aI281
aI318
aI344
aI389
aI431
aI397
aI371
aI392
aI465
aI357
aI468
aI374
aI348
aI437
aI349
aI396
aI323
aI385
aI429
aI354
aI390
aI327
aI338
aI369
aI387
aI333
aI363
aI409
aI384
aI327
aI380
aI403
aI372
aI387
aI327
aI490
aI439
aI356
aI420
aI362
aI357
aI355
aI349
aI389
aI362
aI401
aI404
aI382
aI438
aI426
aI481
aI405
aI481
aI396
aI353
aI339
aI347
aI402
aI474
aI381
aI380
aI413
aI506
aI673
aI446
aI643
aI550
aI524
aI625
aI508
aI548
aI579
aI588
aI464
aI436
aI463
aI608
aI566
aI755
aI438
aI462
aI445
aI548
aI460
aI452
aI423
aI532
aI420
aI398
aI631
aI446
aI544
aI523
aI407
aI451
aI352
aI507
aI441
aI400
aI460
aI434
aI420
aI497
aI574
aI514
aI585
aI631
aI590
aI486
aI390
aI471
aI510
aI461
aI538
aI427
aI416
aI436
aI461
aI481
aI425
aI434
aI410
aI363
aI474
aI503
aI440
aI505
aI449
aI513
aI485
aI447
aI486
aI460
aI596
aI433
aI458
aI478
aI363
aI450
aI572
aI523
aI421
aI588
aI424
aI430
aI460
aI458
aI395
aI521
aI490
aI353
aI417
aI456
aI454
aI433
aI462
aI395
aI456
aI442
aa(lp21
I1358
aI1127
aI1244
aI1188
aI1119
aI1239
aI1427
aI1549
aI1397
aI1280
aI1254
aI1381
aI1265
aI1203
aI1325
aI1571
aI1311
aI1324
aI1326
aI1910
aI3236
aI2300
aI2065
aI2089
aI1741
aI2170
aI2356
aI2067
aI1782
aI1832
aI1966
aI1893
aI1817
aI1964
aI1562
aI1754
aI2027
aI1694
aI1782
aI1596
aI1638
aI1874
aI2249
aI1515
aI1511
aI1349
aI1664
aI1694
aI1394
aI1506
aI1777
aI1655
aI1561
aI1791
aI1715
aI1657
aI1819
aI1432
aI1505
aI1534
aI1800
aI1432
aI1378
aI1489
aI1645
aI1673
aI1762
aI1734
aI1633
aI1559
aI1816
aI1234
aI1788
aI1512
aI1611
aI1702
aI1698
aI3972
aI4317
aI3241
aI3105
aI3143
aI2526
aI2698
aI2461
aI2183
aI2636
aI2057
aI2646
aI3347
aI3702
aI3569
aI2607
aI2745
aI2562
aI2396
aI2139
aI2070
aI2238
aI2239
aI2169
aI2453
aI2215
aI2027
aI2170
aI2126
aI2396
aI2428
aI3394
aI3708
aI2236
aI2077
aI2479
aI2333
aI2123
aI2200
aI2151
aI1844
aI1923
aI1936
aI1926
aI2042
aI1997
aI2434
aI1982
aI1977
aI2327
aI2236
aI2176
aI2037
aI2241
aI1812
aI2138
aI2176
aI2477
aI2277
aI2368
aI2638
aI2025
aI1990
aI2371
aI2325
aI2211
aI1877
aI2160
aI1944
aI2236
aI2488
aI1986
aI1796
aI1936
aI1974
aI1898
aI1630
aI1894
aI1908
aI1717
aI1948
aI2156
aI1946
aI1596
aI1915
aI1729
aI1810
aI2332
aI1904
aI1992
aI1848
aI2062
aI2003
aI1805
aI2028
aI2220
aI2255
aI2009
aI2005
aI2199
aI1784
aI1673
aI2089
aI2012
aI2116
aI2086
aa(lp22
I34
aI62
aI43
aI40
aI56
aI129
aI19
aI27
aI17
aI37
aI12
aI12
aI18
aI41
aI16
aI37
aI15
aI27
aI30
aI41
aI18
aI33
aI28
aI19
aI30
aI19
aI22
aI23
aI45
aI51
aI38
aI22
aI14
aI62
aI26
aI31
aI30
aI39
aI35
aI37
aI31
aI33
aI26
aI20
aI27
aI14
aI29
aI11
aI27
aI39
aI28
aI26
aI18
aI22
aI31
aI23
aI39
aI39
aI42
aI37
aI38
aI28
aI16
aI20
aI27
aI27
aI12
aI24
aI14
aI13
aI19
aI15
aI14
aI28
aI25
aI36
aI25
aI37
aI35
aI25
aI27
aI41
aI34
aI29
aI38
aI49
aI36
aI29
aI23
aI26
aI26
aI32
aI44
aI24
aI19
aI29
aI29
aI26
aI23
aI17
aI19
aI32
aI29
aI26
aI16
aI90
aI13
aI37
aI13
aI29
aI19
aI17
aI60
aI153
aI22
aI15
aI16
aI21
aI16
aI34
aI23
aI33
aI23
aI49
aI32
aI36
aI19
aI20
aI16
aI26
aI52
aI106
aI38
aI13
aI19
aI12
aI21
aI28
aI48
aI32
aI25
aI59
aI45
aI13
aI7
aI17
aI14
aI26
aI17
aI21
aI15
aI21
aI17
aI19
aI17
aI29
aI23
aI15
aI24
aI27
aI41
aI22
aI35
aI11
aI36
aI25
aI13
aI30
aI20
aI21
aI20
aI21
aI19
aI36
aI85
aI13
aI29
aI25
aI39
aI22
aI28
aI27
aI22
aa(lp23
I365
aI226
aI301
aI302
aI356
aI275
aI325
aI373
aI304
aI689
aI524
aI402
aI378
aI398
aI406
aI304
aI421
aI257
aI383
aI252
aI267
aI432
aI424
aI263
aI369
aI266
aI303
aI254
aI313
aI315
aI398
aI355
aI479
aI489
aI466
aI531
aI461
aI690
aI553
aI442
aI488
aI638
aI485
aI527
aI480
aI439
aI456
aI609
aI590
aI474
aI485
aI518
aI399
aI437
aI460
aI518
aI422
aI493
aI424
aI473
aI492
aI529
aI484
aI645
aI414
aI549
aI584
aI707
aI675
aI537
aI591
aI600
aI454
aI404
aI492
aI450
aI410
aI562
aI449
aI641
aI547
aI527
aI539
aI522
aI590
aI473
aI551
aI467
aI559
aI502
aI515
aI521
aI512
aI636
aI572
aI562
aI522
aI501
aI458
aI584
aI539
aI516
aI618
aI547
aI542
aI492
aI611
aI723
aI517
aI531
aI520
aI502
aI473
aI536
aI573
aI503
aI474
aI481
aI579
aI524
aI522
aI543
aI515
aI518
aI445
aI519
aI584
aI607
aI459
aI543
aI569
aI582
aI537
aI581
aI566
aI560
aI555
aI817
aI615
aI678
aI580
aI597
aI474
aI588
aI693
aI586
aI518
aI540
aI549
aI583
aI605
aI537
aI526
aI454
aI590
aI487
aI491
aI662
aI493
aI443
aI465
aI720
aI512
aI517
aI635
aI886
aI649
aI609
aI672
aI624
aI637
aI492
aI596
aI573
aI651
aI536
aI532
aI537
aI459
aI550
aI622
aI622
aI681
aa(lp24
I64
aI83
aI99
aI93
aI92
aI92
aI102
aI80
aI87
aI91
aI107
aI101
aI77
aI68
aI63
aI85
aI65
aI70
aI91
aI99
aI66
aI71
aI93
aI108
aI93
aI122
aI145
aI96
aI92
aI97
aI75
aI83
aI70
aI107
aI127
aI100
aI103
aI89
aI96
aI106
aI94
aI96
aI113
aI116
aI96
aI153
aI125
aI110
aI93
aI112
aI98
aI127
aI111
aI96
aI123
aI95
aI132
aI124
aI99
aI121
aI142
aI129
aI112
aI95
aI162
aI135
aI126
aI114
aI119
aI118
aI110
aI93
aI123
aI160
aI109
aI174
aI111
aI137
aI159
aI145
aI241
aI224
aI152
aI135
aI133
aI127
aI136
aI234
aI106
aI125
aI121
aI106
aI169
aI144
aI120
aI178
aI135
aI102
aI116
aI154
aI121
aI92
aI149
aI146
aI113
aI143
aI179
aI126
aI109
aI141
aI116
aI231
aI79
aI100
aI115
aI90
aI86
aI88
aI72
aI108
aI92
aI124
aI88
aI88
aI86
aI91
aI73
aI154
aI98
aI190
aI123
aI80
aI93
aI198
aI337
aI204
aI177
aI120
aI107
aI124
aI105
aI116
aI87
aI123
aI118
aI123
aI97
aI104
aI83
aI94
aI111
aI94
aI98
aI87
aI105
aI112
aI115
aI102
aI134
aI168
aI134
aI124
aI117
aI117
aI238
aI245
aI259
aI157
aI147
aI239
aI280
aI167
aI181
aI327
aI210
aI237
aI226
aI298
aI218
aI275
aI250
aI234
aI269
aa(lp25
I396
aI458
aI431
aI487
aI513
aI500
aI421
aI465
aI482
aI506
aI572
aI623
aI529
aI477
aI507
aI453
aI539
aI488
aI500
aI553
aI469
aI537
aI492
aI491
aI529
aI507
aI554
aI557
aI520
aI619
aI517
aI572
aI505
aI517
aI480
aI444
aI387
aI463
aI533
aI533
aI614
aI527
aI490
aI473
aI481
aI553
aI541
aI581
aI489
aI493
aI484
aI604
aI577
aI500
aI683
aI477
aI483
aI519
aI580
aI683
aI509
aI507
aI566
aI575
aI504
aI665
aI504
aI534
aI521
aI493
aI530
aI502
aI657
aI628
aI689
aI555
aI504
aI546
aI651
aI570
aI550
aI558
aI678
aI652
aI701
aI602
aI690
aI644
aI628
aI583
aI572
aI671
aI674
aI552
aI643
aI694
aI671
aI548
aI492
aI511
aI523
aI714
aI650
aI656
aI612
aI684
aI633
aI741
aI690
aI635
aI709
aI655
aI599
aI627
aI604
aI520
aI690
aI637
aI699
aI601
aI690
aI664
aI610
aI655
aI584
aI551
aI602
aI612
aI754
aI565
aI591
aI547
aI557
aI686
aI608
aI692
aI690
aI673
aI600
aI601
aI668
aI609
aI677
aI655
aI625
aI813
aI681
aI580
aI670
aI719
aI607
aI1014
aI635
aI613
aI559
aI617
aI553
aI494
aI550
aI580
aI508
aI615
aI541
aI553
aI572
aI588
aI631
aI617
aI588
aI554
aI530
aI598
aI587
aI724
aI527
aI670
aI606
aI635
aI719
aI627
aI615
aI523
aI513
aa(lp26
I56
aI78
aI78
aI75
aI66
aI81
aI136
aI56
aI70
aI75
aI64
aI68
aI150
aI139
aI250
aI129
aI89
aI94
aI71
aI97
aI113
aI123
aI207
aI148
aI92
aI169
aI77
aI68
aI102
aI99
aI100
aI117
aI118
aI81
aI108
aI89
aI125
aI124
aI119
aI110
aI83
aI108
aI146
aI107
aI95
aI142
aI104
aI142
aI187
aI166
aI100
aI91
aI109
aI102
aI148
aI126
aI115
aI114
aI131
aI113
aI139
aI140
aI90
aI114
aI90
aI117
aI107
aI132
aI113
aI150
aI102
aI96
aI100
aI88
aI93
aI98
aI90
aI124
aI147
aI143
aI126
aI108
aI79
aI90
aI110
aI96
aI104
aI121
aI115
aI113
aI119
aI100
aI146
aI128
aI148
aI164
aI83
aI116
aI77
aI88
aI122
aI149
aI100
aI132
aI111
aI119
aI98
aI102
aI114
aI115
aI141
aI97
aI92
aI121
aI105
aI88
aI109
aI117
aI113
aI141
aI85
aI81
aI105
aI126
aI127
aI107
aI218
aI170
aI157
aI151
aI143
aI144
aI87
aI117
aI140
aI98
aI83
aI101
aI115
aI124
aI112
aI94
aI182
aI154
aI115
aI127
aI90
aI73
aI107
aI120
aI97
aI109
aI166
aI94
aI107
aI113
aI147
aI104
aI110
aI118
aI73
aI112
aI156
aI171
aI109
aI113
aI117
aI122
aI113
aI133
aI133
aI128
aI127
aI144
aI123
aI207
aI158
aI173
aI185
aI166
aI157
aI289
aI254
aa(lp27
I215
aI234
aI285
aI175
aI252
aI304
aI240
aI236
aI271
aI238
aI188
aI234
aI231
aI181
aI280
aI203
aI279
aI220
aI211
aI311
aI299
aI224
aI256
aI281
aI273
aI259
aI270
aI195
aI216
aI234
aI286
aI249
aI247
aI218
aI235
aI183
aI185
aI234
aI243
aI297
aI355
aI257
aI379
aI271
aI250
aI258
aI274
aI269
aI211
aI259
aI295
aI301
aI295
aI271
aI237
aI177
aI311
aI269
aI260
aI265
aI240
aI216
aI228
aI258
aI253
aI250
aI224
aI198
aI195
aI211
aI141
aI192
aI235
aI338
aI313
aI285
aI180
aI231
aI193
aI252
aI176
aI154
aI266
aI249
aI277
aI258
aI224
aI205
aI278
aI289
aI320
aI222
aI215
aI187
aI222
aI190
aI221
aI204
aI217
aI256
aI308
aI259
aI290
aI230
aI254
aI281
aI270
aI246
aI220
aI299
aI529
aI439
aI353
aI385
aI398
aI351
aI319
aI301
aI298
aI276
aI312
aI328
aI346
aI283
aI279
aI362
aI361
aI357
aI441
aI384
aI347
aI462
aI356
aI362
aI339
aI292
aI353
aI312
aI371
aI286
aI349
aI340
aI242
aI394
aI433
aI541
aI428
aI468
aI474
aI327
aI429
aI638
aI374
aI494
aI570
aI401
aI452
aI425
aI498
aI481
aI476
aI366
aI467
aI431
aI439
aI345
aI595
aI601
aI805
aI741
aI962
aI805
aI866
aI982
aI495
aI643
aI736
aI608
aI510
aI403
aI413
aI445
aI568
aa(lp28
I672
aI643
aI753
aI810
aI582
aI701
aI628
aI712
aI845
aI753
aI693
aI611
aI607
aI540
aI622
aI610
aI608
aI802
aI933
aI913
aI940
aI903
aI901
aI970
aI931
aI1081
aI1109
aI992
aI1162
aI975
aI1170
aI1450
aI1164
aI1121
aI1460
aI936
aI995
aI1151
aI1192
aI1216
aI1154
aI1094
aI1007
aI1428
aI1359
aI1253
aI1123
aI970
aI1010
aI871
aI1166
aI1184
aI1064
aI1047
aI1087
aI956
aI1148
aI1152
aI1181
aI1064
aI927
aI789
aI728
aI744
aI941
aI732
aI833
aI833
aI870
aI873
aI818
aI841
aI863
aI825
aI804
aI687
aI754
aI647
aI800
aI749
aI775
aI741
aI768
aI745
aI607
aI638
aI874
aI711
aI695
aI700
aI630
aI697
aI767
aI749
aI758
aI721
aI744
aI774
aI695
aI693
aI723
aI800
aI630
aI626
aI540
aI518
aI791
aI659
aI723
aI590
aI641
aI661
aI586
aI724
aI961
aI824
aI581
aI593
aI544
aI503
aI759
aI785
aI752
aI580
aI613
aI588
aI476
aI774
aI793
aI726
aI750
aI589
aI564
aI468
aI757
aI664
aI703
aI754
aI819
aI425
aI451
aI667
aI694
aI532
aI545
aI579
aI527
aI447
aI584
aI489
aI535
aI494
aI530
aI403
aI404
aI626
aI612
aI654
aI721
aI501
aI481
aI493
aI575
aI526
aI542
aI500
aI550
aI568
aI423
aI589
aI528
aI638
aI673
aI690
aI507
aI530
aI652
aI515
aI513
aI523
aI487
aI407
aI590
aa(lp29
I179
aI80
aI66
aI95
aI104
aI86
aI124
aI62
aI118
aI75
aI64
aI67
aI82
aI101
aI136
aI89
aI67
aI97
aI74
aI119
aI64
aI99
aI44
aI91
aI109
aI78
aI49
aI31
aI83
aI62
aI73
aI87
aI83
aI77
aI58
aI57
aI72
aI78
aI61
aI58
aI111
aI58
aI68
aI70
aI122
aI116
aI67
aI91
aI81
aI67
aI62
aI75
aI94
aI81
aI84
aI73
aI81
aI84
aI149
aI102
aI108
aI78
aI97
aI66
aI82
aI64
aI111
aI59
aI141
aI100
aI117
aI107
aI124
aI99
aI118
aI96
aI84
aI95
aI167
aI141
aI166
aI195
aI132
aI86
aI137
aI134
aI164
aI121
aI132
aI111
aI137
aI121
aI102
aI124
aI56
aI85
aI93
aI96
aI64
aI55
aI63
aI62
aI80
aI46
aI90
aI101
aI77
aI114
aI43
aI86
aI69
aI59
aI75
aI84
aI82
aI75
aI89
aI104
aI92
aI87
aI79
aI95
aI56
aI57
aI89
aI114
aI106
aI77
aI82
aI92
aI111
aI94
aI209
aI65
aI116
aI161
aI89
aI93
aI87
aI100
aI72
aI87
aI75
aI83
aI99
aI81
aI81
aI49
aI64
aI55
aI119
aI84
aI48
aI70
aI58
aI46
aI51
aI124
aI70
aI101
aI86
aI54
aI58
aI49
aI86
aI61
aI65
aI71
aI50
aI89
aI55
aI147
aI118
aI145
aI129
aI74
aI60
aI71
aI99
aI77
aI93
aI68
aI55
aa(lp30
I482
aI449
aI474
aI458
aI398
aI415
aI550
aI453
aI411
aI481
aI569
aI725
aI692
aI558
aI791
aI594
aI644
aI423
aI433
aI392
aI635
aI759
aI647
aI594
aI737
aI633
aI746
aI575
aI713
aI779
aI701
aI731
aI954
aI774
aI668
aI622
aI671
aI718
aI802
aI882
aI892
aI900
aI985
aI692
aI691
aI664
aI854
aI774
aI810
aI811
aI697
aI882
aI890
aI704
aI795
aI614
aI661
aI633
aI619
aI620
aI590
aI492
aI477
aI547
aI528
aI476
aI580
aI548
aI461
aI474
aI422
aI414
aI520
aI532
aI744
aI705
aI619
aI633
aI507
aI492
aI540
aI460
aI624
aI445
aI426
aI467
aI562
aI376
aI447
aI461
aI457
aI437
aI505
aI424
aI443
aI465
aI453
aI370
aI410
aI471
aI553
aI420
aI488
aI412
aI395
aI400
aI413
aI323
aI471
aI432
aI397
aI390
aI515
aI382
aI412
aI522
aI456
aI455
aI402
aI395
aI415
aI414
aI440
aI571
aI376
aI383
aI429
aI455
aI434
aI402
aI433
aI323
aI417
aI406
aI413
aI498
aI436
aI465
aI564
aI350
aI351
aI341
aI280
aI357
aI407
aI372
aI329
aI385
aI393
aI424
aI417
aI591
aI536
aI530
aI407
aI479
aI665
aI449
aI609
aI526
aI425
aI483
aI454
aI484
aI390
aI407
aI517
aI359
aI394
aI398
aI443
aI541
aI529
aI469
aI430
aI394
aI476
aI516
aI340
aI443
aI414
aI403
aI454
aa(lp31
I101
aI71
aI73
aI181
aI251
aI116
aI146
aI153
aI99
aI102
aI94
aI112
aI97
aI173
aI165
aI111
aI131
aI229
aI127
aI189
aI153
aI205
aI149
aI122
aI133
aI191
aI205
aI387
aI214
aI292
aI218
aI172
aI200
aI228
aI241
aI190
aI285
aI192
aI242
aI267
aI336
aI484
aI438
aI743
aI386
aI533
aI317
aI435
aI233
aI344
aI475
aI340
aI379
aI348
aI322
aI245
aI235
aI432
aI483
aI648
aI442
aI261
aI300
aI342
aI371
aI329
aI428
aI301
aI232
aI349
aI203
aI275
aI232
aI263
aI459
aI431
aI379
aI391
aI199
aI238
aI362
aI510
aI312
aI317
aI239
aI228
aI262
aI367
aI306
aI390
aI350
aI424
aI204
aI277
aI392
aI323
aI207
aI416
aI309
aI395
aI224
aI301
aI222
aI260
aI179
aI233
aI301
aI201
aI254
aI215
aI212
aI230
aI177
aI150
aI231
aI258
aI205
aI184
aI149
aI287
aI351
aI244
aI280
aI318
aI314
aI392
aI220
aI189
aI263
aI381
aI304
aI182
aI150
aI169
aI133
aI214
aI239
aI171
aI152
aI177
aI166
aI194
aI160
aI226
aI151
aI174
aI183
aI196
aI195
aI253
aI234
aI187
aI517
aI424
aI361
aI281
aI338
aI355
aI229
aI257
aI308
aI251
aI180
aI246
aI291
aI251
aI221
aI209
aI202
aI193
aI355
aI310
aI277
aI247
aI231
aI236
aI215
aI338
aI294
aI224
aI292
aI190
aI220
aa(lp32
I865
aI864
aI847
aI876
aI866
aI1357
aI1534
aI1298
aI1956
aI1473
aI1446
aI1292
aI1507
aI1359
aI1401
aI1227
aI1133
aI1126
aI1143
aI1187
aI1011
aI1319
aI1180
aI1137
aI1131
aI1125
aI1017
aI1024
aI1071
aI953
aI1143
aI957
aI986
aI927
aI833
aI855
aI1068
aI822
aI905
aI884
aI919
aI863
aI991
aI1298
aI1470
aI1191
aI1311
aI1307
aI1313
aI926
aI1023
aI917
aI1011
aI1011
aI1105
aI1075
aI1047
aI955
aI896
aI960
aI962
aI948
aI1082
aI911
aI840
aI918
aI1006
aI1082
aI1039
aI986
aI863
aI788
aI1049
aI854
aI849
aI783
aI798
aI799
aI878
aI926
aI780
aI1070
aI954
aI862
aI968
aI950
aI1026
aI915
aI893
aI863
aI978
aI843
aI931
aI1022
aI921
aI766
aI786
aI853
aI790
aI904
aI857
aI1050
aI917
aI1102
aI919
aI1088
aI1348
aI960
aI840
aI1029
aI1034
aI945
aI823
aI1096
aI962
aI839
aI1144
aI890
aI926
aI927
aI953
aI982
aI999
aI1117
aI965
aI1053
aI1056
aI949
aI954
aI918
aI1754
aI1783
aI1408
aI1502
aI1510
aI1204
aI1080
aI1179
aI1026
aI1010
aI1133
aI1128
aI2766
aI3006
aI1505
aI1519
aI1204
aI1127
aI1181
aI1336
aI1229
aI1302
aI1176
aI1109
aI1005
aI1168
aI1084
aI1101
aI1139
aI1009
aI1022
aI940
aI1062
aI1036
aI1089
aI926
aI894
aI934
aI895
aI1141
aI1071
aI1061
aI1209
aI1217
aI1033
aI1015
aI1233
aI1291
aI1209
aI1219
aI1106
aI982
aI1195
aa(lp33
I58
aI37
aI55
aI60
aI73
aI56
aI64
aI44
aI69
aI44
aI71
aI32
aI44
aI47
aI46
aI50
aI59
aI38
aI29
aI52
aI45
aI68
aI25
aI47
aI43
aI49
aI37
aI42
aI70
aI50
aI58
aI72
aI49
aI72
aI75
aI88
aI93
aI116
aI85
aI54
aI89
aI69
aI76
aI80
aI50
aI51
aI47
aI54
aI86
aI82
aI54
aI55
aI65
aI46
aI65
aI90
aI88
aI59
aI77
aI58
aI51
aI83
aI57
aI61
aI43
aI53
aI43
aI69
aI65
aI60
aI62
aI44
aI58
aI54
aI63
aI55
aI61
aI67
aI32
aI64
aI58
aI48
aI64
aI38
aI82
aI54
aI54
aI56
aI51
aI59
aI80
aI51
aI59
aI56
aI71
aI77
aI68
aI70
aI84
aI61
aI71
aI56
aI46
aI54
aI67
aI51
aI48
aI48
aI59
aI53
aI57
aI73
aI126
aI60
aI62
aI51
aI69
aI76
aI68
aI82
aI90
aI59
aI72
aI67
aI72
aI54
aI62
aI91
aI107
aI55
aI78
aI163
aI61
aI64
aI66
aI68
aI87
aI46
aI92
aI49
aI113
aI54
aI54
aI56
aI75
aI71
aI71
aI58
aI52
aI52
aI59
aI50
aI73
aI76
aI59
aI60
aI64
aI64
aI76
aI78
aI47
aI55
aI43
aI53
aI55
aI55
aI66
aI59
aI70
aI54
aI66
aI93
aI75
aI79
aI88
aI65
aI74
aI69
aI60
aI96
aI83
aI76
aI83
aa(lp34
I119
aI130
aI110
aI153
aI168
aI150
aI179
aI153
aI139
aI231
aI238
aI135
aI185
aI315
aI245
aI184
aI253
aI668
aI342
aI289
aI331
aI270
aI390
aI578
aI611
aI739
aI605
aI632
aI593
aI603
aI501
aI552
aI481
aI462
aI462
aI459
aI453
aI539
aI556
aI456
aI611
aI559
aI460
aI453
aI494
aI534
aI491
aI499
aI612
aI630
aI459
aI541
aI546
aI489
aI424
aI444
aI451
aI386
aI533
aI486
aI437
aI459
aI380
aI469
aI556
aI490
aI398
aI400
aI390
aI395
aI337
aI295
aI396
aI431
aI403
aI382
aI400
aI321
aI343
aI353
aI362
aI399
aI312
aI340
aI330
aI373
aI393
aI478
aI513
aI604
aI572
aI532
aI530
aI486
aI631
aI628
aI685
aI616
aI513
aI499
aI457
aI462
aI508
aI492
aI506
aI565
aI642
aI492
aI419
aI487
aI492
aI425
aI398
aI355
aI413
aI410
aI419
aI444
aI418
aI361
aI422
aI433
aI402
aI470
aI464
aI329
aI393
aI367
aI458
aI312
aI344
aI445
aI434
aI348
aI459
aI415
aI500
aI526
aI403
aI349
aI353
aI364
aI361
aI385
aI391
aI404
aI418
aI353
aI390
aI307
aI431
aI379
aI378
aI287
aI271
aI406
aI374
aI314
aI352
aI331
aI305
aI292
aI341
aI392
aI443
aI403
aI414
aI413
aI410
aI405
aI448
aI768
aI736
aI644
aI482
aI463
aI516
aI505
aI472
aI467
aI414
aI422
aI366
aa(lp35
I7
aI4
aI3
aI5
aI3
aI7
aI3
aI6
aI1
aI3
aI4
aI13
aI5
aI5
aI2
aI5
aI3
aI3
aI3
aI5
aI6
aI3
aI1
aI30
aI6
aI7
aI6
aI10
aI4
aI5
aI13
aI18
aI15
aI7
aI5
aI8
aI8
aI8
aI8
aI8
aI4
aI36
aI13
aI6
aI14
aI21
aI17
aI11
aI8
aI9
aI9
aI7
aI7
aI7
aI4
aI4
aI5
aI6
aI10
aI30
aI2
aI11
aI11
aI6
aI7
aI9
aI8
aI10
aI5
aI8
aI12
aI35
aI17
aI24
aI14
aI5
aI2
aI5
aI3
aI7
aI3
aI1
aI2
aI4
aI1
aI1
aI1
aI2
aI5
aI2
aI1
aI8
aI31
aI5
aI5
aI6
aI8
aI1
aI2
aI5
aI5
aI1
aI2
aI5
aI3
aI2
aI3
aI8
aI11
aI5
aI8
aI105
aI35
aI59
aI236
aI270
aI157
aI31
aI14
aI3
aI4
aI18
aI7
aI10
aI6
aI10
aI8
aI26
aI17
aI156
aI93
aI181
aI168
aI16
aI8
aI10
aI6
aI7
aI11
aI10
aI9
aI5
aI6
aI4
aI8
aI14
aI2
aI4
aI1
aI5
aI13
aI12
aI11
aI6
aI8
aI10
aI10
aI11
aI6
aI3
aI3
aI6
aI11
aI10
aI19
aI10
aI2
aI15
aI9
aI5
aI13
aI1
aI6
aI1
aI3
aI1
aI11
aI7
aa(lp36
I54
aI40
aI73
aI61
aI88
aI86
aI101
aI90
aI105
aI123
aI83
aI81
aI92
aI107
aI145
aI150
aI113
aI82
aI75
aI81
aI91
aI77
aI91
aI89
aI101
aI104
aI83
aI92
aI95
aI93
aI82
aI96
aI116
aI104
aI126
aI94
aI92
aI92
aI119
aI100
aI129
aI86
aI143
aI104
aI109
aI100
aI100
aI108
aI90
aI124
aI106
aI136
aI146
aI116
aI82
aI128
aI134
aI135
aI195
aI205
aI151
aI107
aI107
aI140
aI155
aI122
aI156
aI109
aI101
aI103
aI135
aI225
aI110
aI112
aI179
aI243
aI206
aI175
aI283
aI138
aI151
aI168
aI168
aI147
aI198
aI230
aI147
aI170
aI195
aI142
aI153
aI197
aI133
aI187
aI234
aI108
aI144
aI111
aI193
aI179
aI162
aI153
aI115
aI120
aI128
aI127
aI106
aI110
aI142
aI90
aI146
aI112
aI137
aI177
aI168
aI153
aI135
aI160
aI149
aI165
aI152
aI238
aI140
aI178
aI112
aI127
aI116
aI182
aI146
aI171
aI176
aI136
aI136
aI160
aI148
aI150
aI169
aI149
aI163
aI97
aI120
aI135
aI129
aI124
aI114
aI105
aI168
aI114
aI135
aI172
aI124
aI122
aI129
aI141
aI99
aI116
aI144
aI130
aI161
aI114
aI91
aI116
aI118
aI143
aI172
aI152
aI122
aI128
aI109
aI117
aI123
aI137
aI155
aI150
aI98
aI125
aI133
aI109
aI269
aI168
aI185
aI164
aI140
aa(lp37
I104
aI273
aI74
aI61
aI46
aI22
aI70
aI72
aI68
aI37
aI68
aI60
aI59
aI113
aI83
aI92
aI93
aI36
aI66
aI57
aI89
aI47
aI67
aI84
aI134
aI101
aI57
aI58
aI95
aI72
aI72
aI78
aI111
aI92
aI107
aI94
aI89
aI92
aI147
aI103
aI115
aI136
aI117
aI118
aI92
aI145
aI76
aI108
aI83
aI91
aI106
aI103
aI113
aI56
aI85
aI135
aI132
aI103
aI134
aI71
aI71
aI87
aI137
aI145
aI130
aI154
aI97
aI79
aI96
aI119
aI126
aI76
aI123
aI127
aI94
aI125
aI187
aI251
aI153
aI111
aI104
aI73
aI232
aI247
aI152
aI120
aI121
aI110
aI106
aI105
aI166
aI208
aI236
aI89
aI93
aI79
aI81
aI124
aI127
aI62
aI101
aI112
aI69
aI155
aI107
aI135
aI93
aI103
aI135
aI83
aI71
aI161
aI124
aI97
aI100
aI110
aI74
aI114
aI159
aI183
aI172
aI192
aI167
aI132
aI227
aI162
aI225
aI96
aI240
aI125
aI88
aI240
aI127
aI141
aI146
aI213
aI190
aI210
aI155
aI209
aI109
aI143
aI142
aI202
aI147
aI231
aI130
aI185
aI88
aI204
aI221
aI84
aI106
aI177
aI269
aI94
aI183
aI185
aI121
aI212
aI165
aI178
aI156
aI157
aI118
aI113
aI143
aI171
aI135
aI124
aI153
aI155
aI109
aI103
aI168
aI176
aI170
aI127
aI156
aI80
aI157
aI211
aI196
aa(lp38
I664
aI589
aI606
aI692
aI820
aI802
aI774
aI1064
aI1191
aI753
aI738
aI639
aI781
aI936
aI962
aI872
aI969
aI781
aI756
aI1083
aI829
aI732
aI561
aI1905
aI2261
aI638
aI788
aI598
aI808
aI841
aI741
aI787
aI575
aI737
aI608
aI697
aI1040
aI1003
aI989
aI976
aI842
aI836
aI863
aI680
aI712
aI726
aI725
aI798
aI725
aI649
aI787
aI880
aI735
aI634
aI701
aI555
aI622
aI784
aI1019
aI818
aI766
aI554
aI749
aI746
aI714
aI620
aI650
aI730
aI768
aI736
aI741
aI852
aI772
aI1130
aI1067
aI970
aI824
aI665
aI802
aI748
aI796
aI823
aI829
aI599
aI695
aI663
aI656
aI544
aI724
aI777
aI700
aI764
aI646
aI759
aI796
aI811
aI864
aI719
aI685
aI747
aI916
aI877
aI881
aI789
aI785
aI826
aI787
aI717
aI772
aI901
aI1020
aI908
aI605
aI676
aI686
aI620
aI716
aI671
aI719
aI670
aI786
aI808
aI963
aI1169
aI1122
aI1187
aI1328
aI868
aI807
aI925
aI684
aI835
aI866
aI885
aI1352
aI1156
aI935
aI958
aI935
aI870
aI976
aI833
aI792
aI855
aI807
aI751
aI764
aI737
aI860
aI807
aI789
aI704
aI685
aI899
aI760
aI922
aI739
aI902
aI687
aI890
aI1658
aI1588
aI1283
aI1061
aI952
aI852
aI814
aI937
aI936
aI864
aI842
aI837
aI743
aI626
aI719
aI928
aI826
aI980
aI768
aI1070
aI1036
aI788
aI1020
aa(lp39
I652
aI641
aI719
aI1008
aI857
aI702
aI731
aI867
aI738
aI820
aI706
aI1019
aI846
aI895
aI962
aI642
aI653
aI670
aI784
aI808
aI699
aI656
aI789
aI640
aI728
aI694
aI643
aI712
aI813
aI803
aI740
aI816
aI970
aI1034
aI639
aI721
aI760
aI854
aI975
aI901
aI892
aI941
aI993
aI855
aI821
aI721
aI719
aI836
aI779
aI890
aI729
aI739
aI862
aI795
aI864
aI749
aI734
aI796
aI843
aI770
aI785
aI668
aI727
aI763
aI838
aI983
aI881
aI786
aI909
aI725
aI878
aI817
aI894
aI816
aI872
aI771
aI813
aI1094
aI923
aI834
aI919
aI1139
aI981
aI788
aI778
aI907
aI994
aI1035
aI1092
aI857
aI872
aI789
aI766
aI790
aI879
aI961
aI895
aI803
aI880
aI753
aI819
aI983
aI936
aI774
aI841
aI791
aI1002
aI870
aI875
aI819
aI861
aI688
aI738
aI805
aI924
aI808
aI798
aI885
aI786
aI973
aI965
aI976
aI844
aI932
aI851
aI832
aI801
aI762
aI940
aI802
aI858
aI936
aI755
aI790
aI796
aI802
aI676
aI778
aI856
aI737
aI783
aI876
aI825
aI870
aI936
aI911
aI642
aI1010
aI713
aI805
aI747
aI766
aI835
aI628
aI977
aI747
aI748
aI821
aI986
aI797
aI916
aI792
aI882
aI999
aI935
aI857
aI910
aI921
aI825
aI913
aI978
aI1037
aI1074
aI1179
aI1105
aI867
aI973
aI959
aI903
aI1097
aI1081
aI966
aI911
aa(lp40
I122
aI113
aI115
aI147
aI102
aI121
aI155
aI114
aI111
aI67
aI137
aI141
aI120
aI93
aI119
aI124
aI101
aI96
aI71
aI88
aI117
aI114
aI76
aI83
aI78
aI86
aI87
aI87
aI82
aI85
aI77
aI95
aI191
aI69
aI89
aI53
aI70
aI65
aI67
aI89
aI80
aI88
aI66
aI71
aI74
aI68
aI89
aI63
aI87
aI77
aI143
aI94
aI73
aI82
aI90
aI104
aI86
aI69
aI85
aI102
aI109
aI85
aI67
aI65
aI68
aI80
aI74
aI93
aI55
aI76
aI102
aI48
aI80
aI77
aI80
aI65
aI59
aI47
aI40
aI59
aI52
aI54
aI53
aI55
aI59
aI59
aI60
aI42
aI45
aI65
aI45
aI53
aI47
aI34
aI51
aI54
aI42
aI32
aI44
aI48
aI47
aI68
aI50
aI37
aI41
aI44
aI49
aI50
aI28
aI42
aI47
aI35
aI26
aI34
aI42
aI41
aI57
aI29
aI34
aI40
aI24
aI44
aI30
aI47
aI48
aI38
aI42
aI48
aI44
aI51
aI55
aI51
aI47
aI23
aI35
aI49
aI29
aI40
aI58
aI28
aI51
aI47
aI29
aI37
aI46
aI45
aI36
aI33
aI49
aI46
aI34
aI37
aI39
aI37
aI27
aI30
aI43
aI46
aI29
aI41
aI66
aI41
aI49
aI37
aI53
aI40
aI42
aI45
aI55
aI44
aI48
aI33
aI34
aI31
aI38
aI63
aI47
aI57
aI63
aI45
aI26
aI44
aI47
aa(lp41
I257
aI200
aI300
aI366
aI332
aI491
aI1010
aI1115
aI709
aI457
aI476
aI436
aI717
aI543
aI350
aI306
aI312
aI280
aI287
aI262
aI235
aI245
aI218
aI321
aI194
aI271
aI237
aI453
aI416
aI346
aI287
aI320
aI311
aI337
aI330
aI366
aI304
aI280
aI306
aI285
aI295
aI385
aI329
aI329
aI319
aI353
aI225
aI299
aI285
aI406
aI309
aI275
aI290
aI310
aI294
aI247
aI361
aI256
aI278
aI234
aI247
aI243
aI234
aI349
aI234
aI245
aI304
aI299
aI265
aI230
aI354
aI265
aI240
aI290
aI262
aI271
aI279
aI346
aI285
aI231
aI250
aI218
aI242
aI238
aI328
aI197
aI204
aI245
aI301
aI285
aI263
aI337
aI333
aI258
aI247
aI329
aI388
aI977
aI978
aI946
aI552
aI365
aI405
aI419
aI333
aI418
aI469
aI521
aI446
aI351
aI342
aI325
aI510
aI383
aI297
aI273
aI296
aI277
aI254
aI322
aI258
aI255
aI291
aI305
aI299
aI254
aI349
aI307
aI263
aI352
aI350
aI424
aI350
aI445
aI433
aI469
aI417
aI411
aI451
aI373
aI391
aI353
aI343
aI288
aI377
aI301
aI270
aI391
aI259
aI266
aI299
aI268
aI294
aI291
aI335
aI334
aI296
aI447
aI308
aI391
aI225
aI280
aI269
aI301
aI267
aI311
aI291
aI223
aI305
aI298
aI276
aI310
aI286
aI289
aI222
aI242
aI299
aI244
aI287
aI259
aI265
aI230
aI309
aa(lp42
I637
aI654
aI709
aI565
aI606
aI594
aI565
aI652
aI586
aI520
aI684
aI627
aI720
aI619
aI583
aI616
aI606
aI658
aI644
aI830
aI780
aI688
aI843
aI813
aI708
aI828
aI759
aI781
aI690
aI782
aI868
aI953
aI1119
aI1043
aI865
aI711
aI844
aI978
aI937
aI953
aI989
aI890
aI863
aI838
aI932
aI1027
aI980
aI1096
aI835
aI988
aI1118
aI1057
aI1158
aI1087
aI911
aI894
aI1015
aI1114
aI845
aI927
aI899
aI918
aI781
aI1077
aI987
aI957
aI833
aI958
aI984
aI905
aI837
aI832
aI1065
aI1149
aI1083
aI963
aI830
aI922
aI974
aI818
aI894
aI1066
aI985
aI839
aI822
aI874
aI965
aI971
aI1080
aI1119
aI952
aI915
aI964
aI877
aI1169
aI984
aI956
aI970
aI885
aI999
aI1058
aI1081
aI1068
aI1169
aI947
aI1080
aI1101
aI1010
aI938
aI1066
aI1216
aI965
aI810
aI969
aI1010
aI1166
aI1050
aI1153
aI1092
aI980
aI1089
aI1077
aI1188
aI1143
aI1184
aI1112
aI1157
aI1209
aI1142
aI1298
aI1197
aI1163
aI1053
aI1183
aI1253
aI1186
aI1188
aI1349
aI1055
aI1014
aI1017
aI993
aI923
aI1108
aI1182
aI1074
aI1047
aI1011
aI1051
aI1018
aI942
aI851
aI878
aI908
aI678
aI831
aI906
aI1050
aI951
aI1032
aI1022
aI805
aI881
aI816
aI909
aI959
aI941
aI788
aI912
aI956
aI981
aI1387
aI1163
aI1000
aI911
aI914
aI879
aI823
aI917
aI962
aI1008
aI1064
aI1009
aa(lp43
I148
aI97
aI135
aI172
aI145
aI131
aI133
aI150
aI129
aI168
aI90
aI97
aI151
aI105
aI141
aI114
aI137
aI93
aI164
aI152
aI267
aI169
aI101
aI140
aI237
aI204
aI159
aI222
aI243
aI250
aI288
aI206
aI213
aI169
aI187
aI163
aI144
aI137
aI130
aI181
aI161
aI232
aI190
aI129
aI157
aI253
aI156
aI131
aI189
aI159
aI134
aI177
aI159
aI144
aI178
aI157
aI221
aI135
aI122
aI205
aI239
aI236
aI132
aI151
aI214
aI112
aI147
aI177
aI218
aI164
aI136
aI146
aI156
aI130
aI178
aI148
aI126
aI182
aI162
aI144
aI156
aI168
aI165
aI122
aI149
aI123
aI167
aI199
aI143
aI152
aI171
aI155
aI159
aI119
aI193
aI183
aI148
aI358
aI159
aI157
aI139
aI168
aI142
aI164
aI155
aI163
aI175
aI179
aI155
aI205
aI166
aI118
aI176
aI154
aI174
aI162
aI184
aI138
aI111
aI152
aI112
aI128
aI157
aI177
aI200
aI133
aI100
aI118
aI150
aI120
aI176
aI133
aI106
aI123
aI166
aI125
aI115
aI150
aI165
aI120
aI144
aI148
aI121
aI100
aI146
aI147
aI125
aI134
aI150
aI228
aI109
aI163
aI141
aI111
aI144
aI185
aI174
aI190
aI165
aI137
aI125
aI185
aI217
aI131
aI127
aI161
aI138
aI91
aI113
aI105
aI123
aI140
aI175
aI181
aI108
aI132
aI138
aI123
aI114
aI156
aI145
aI112
aI78
aa(lp44
I81
aI104
aI143
aI169
aI151
aI184
aI116
aI158
aI155
aI148
aI98
aI161
aI296
aI103
aI152
aI65
aI200
aI200
aI99
aI134
aI111
aI101
aI89
aI76
aI84
aI117
aI123
aI102
aI121
aI111
aI116
aI108
aI97
aI66
aI100
aI91
aI81
aI129
aI93
aI84
aI66
aI120
aI122
aI103
aI95
aI80
aI68
aI91
aI84
aI98
aI81
aI64
aI79
aI84
aI158
aI99
aI154
aI77
aI57
aI68
aI155
aI126
aI219
aI129
aI99
aI98
aI105
aI105
aI140
aI161
aI133
aI150
aI130
aI167
aI103
aI88
aI136
aI131
aI147
aI123
aI99
aI85
aI71
aI97
aI143
aI134
aI78
aI113
aI87
aI69
aI129
aI178
aI175
aI122
aI141
aI95
aI114
aI137
aI86
aI123
aI81
aI88
aI96
aI105
aI73
aI150
aI86
aI63
aI93
aI118
aI111
aI186
aI107
aI183
aI99
aI104
aI94
aI118
aI102
aI115
aI132
aI115
aI127
aI130
aI161
aI53
aI60
aI99
aI132
aI118
aI115
aI147
aI116
aI106
aI156
aI182
aI117
aI75
aI78
aI66
aI65
aI100
aI73
aI104
aI85
aI93
aI83
aI67
aI114
aI140
aI85
aI105
aI59
aI72
aI63
aI102
aI64
aI78
aI189
aI165
aI97
aI164
aI198
aI149
aI200
aI173
aI287
aI228
aI102
aI113
aI112
aI106
aI109
aI144
aI130
aI111
aI164
aI135
aI118
aI130
aI163
aI192
aI144
aa(lp45
I279
aI455
aI773
aI936
aI779
aI846
aI631
aI526
aI701
aI649
aI814
aI1028
aI957
aI829
aI1023
aI1009
aI846
aI630
aI806
aI790
aI852
aI810
aI937
aI635
aI757
aI862
aI635
aI627
aI804
aI703
aI632
aI977
aI1094
aI957
aI524
aI754
aI562
aI910
aI906
aI989
aI797
aI736
aI728
aI613
aI812
aI758
aI836
aI856
aI817
aI685
aI847
aI905
aI956
aI824
aI694
aI744
aI622
aI787
aI634
aI578
aI653
aI599
aI509
aI604
aI523
aI534
aI548
aI582
aI638
aI515
aI515
aI564
aI642
aI595
aI553
aI624
aI349
aI404
aI517
aI525
aI518
aI548
aI698
aI404
aI307
aI579
aI479
aI362
aI440
aI443
aI410
aI396
aI405
aI380
aI418
aI474
aI482
aI457
aI347
aI486
aI489
aI413
aI399
aI391
aI286
aI267
aI428
aI364
aI475
aI452
aI404
aI264
aI239
aI336
aI373
aI269
aI275
aI330
aI305
aI297
aI263
aI335
aI309
aI379
aI348
aI263
aI326
aI389
aI359
aI324
aI359
aI440
aI354
aI296
aI325
aI282
aI344
aI269
aI395
aI252
aI277
aI405
aI382
aI250
aI334
aI426
aI263
aI226
aI267
aI254
aI284
aI326
aI297
aI291
aI290
aI234
aI341
aI316
aI283
aI285
aI218
aI320
aI297
aI283
aI272
aI297
aI316
aI408
aI204
aI318
aI422
aI256
aI239
aI235
aI199
aI155
aI262
aI265
aI263
aI357
aI249
aI246
aI217
aa(lp46
I254
aI327
aI418
aI399
aI353
aI405
aI422
aI395
aI382
aI347
aI478
aI406
aI411
aI460
aI360
aI416
aI397
aI475
aI529
aI375
aI430
aI457
aI380
aI476
aI377
aI353
aI447
aI346
aI483
aI316
aI417
aI474
aI559
aI441
aI610
aI419
aI482
aI559
aI522
aI576
aI500
aI612
aI409
aI504
aI417
aI629
aI770
aI825
aI651
aI598
aI547
aI559
aI570
aI550
aI727
aI583
aI437
aI595
aI751
aI554
aI560
aI627
aI431
aI604
aI624
aI1012
aI1110
aI1053
aI1033
aI851
aI645
aI692
aI602
aI678
aI585
aI682
aI678
aI724
aI572
aI495
aI516
aI636
aI509
aI563
aI597
aI685
aI636
aI786
aI769
aI707
aI702
aI711
aI701
aI633
aI745
aI634
aI1625
aI1937
aI1934
aI2374
aI1420
aI1469
aI1543
aI1517
aI1190
aI941
aI1003
aI903
aI892
aI945
aI989
aI775
aI675
aI950
aI941
aI826
aI943
aI1086
aI659
aI865
aI829
aI741
aI713
aI680
aI670
aI598
aI612
aI754
aI718
aI728
aI582
aI806
aI684
aI671
aI584
aI762
aI628
aI846
aI827
aI622
aI592
aI697
aI755
aI626
aI595
aI665
aI698
aI702
aI820
aI647
aI747
aI702
aI762
aI748
aI605
aI727
aI816
aI685
aI745
aI518
aI687
aI714
aI751
aI753
aI757
aI654
aI650
aI684
aI545
aI857
aI742
aI708
aI703
aI647
aI628
aI539
aI726
aI591
aI672
aI632
aI780
aI656
aI548
aa(lp47
I280
aI235
aI272
aI252
aI270
aI258
aI241
aI192
aI212
aI217
aI273
aI339
aI222
aI225
aI278
aI288
aI214
aI280
aI325
aI352
aI289
aI232
aI251
aI287
aI243
aI245
aI241
aI190
aI323
aI286
aI401
aI390
aI300
aI357
aI260
aI293
aI358
aI376
aI391
aI398
aI310
aI307
aI315
aI374
aI395
aI340
aI371
aI336
aI327
aI295
aI352
aI310
aI303
aI321
aI306
aI357
aI442
aI496
aI316
aI285
aI275
aI317
aI335
aI397
aI410
aI478
aI300
aI591
aI805
aI495
aI567
aI448
aI473
aI634
aI536
aI580
aI555
aI535
aI518
aI512
aI479
aI454
aI489
aI464
aI545
aI438
aI426
aI502
aI501
aI416
aI389
aI375
aI401
aI423
aI447
aI312
aI422
aI374
aI413
aI414
aI660
aI556
aI537
aI567
aI451
aI374
aI472
aI397
aI408
aI423
aI465
aI355
aI397
aI672
aI460
aI417
aI514
aI553
aI389
aI536
aI436
aI476
aI458
aI519
aI517
aI414
aI398
aI461
aI495
aI479
aI457
aI456
aI458
aI552
aI432
aI527
aI469
aI384
aI386
aI344
aI341
aI444
aI540
aI1866
aI4243
aI5880
aI5431
aI5170
aI4780
aI4824
aI4544
aI4248
aI4216
aI3201
aI2958
aI3931
aI3200
aI3365
aI2794
aI2629
aI2419
aI2395
aI2647
aI3223
aI2758
aI2362
aI2454
aI2082
aI2194
aI2060
aI2053
aI1910
aI1936
aI1895
aI1578
aI1621
aI1987
aI1910
aI1883
aI1684
aI1415
aI1502
aI1463
aa(lp48
I58
aI99
aI125
aI273
aI172
aI313
aI99
aI132
aI100
aI94
aI74
aI120
aI64
aI88
aI116
aI83
aI96
aI94
aI130
aI196
aI116
aI120
aI243
aI81
aI177
aI63
aI100
aI113
aI94
aI84
aI72
aI85
aI71
aI87
aI80
aI97
aI150
aI109
aI71
aI85
aI84
aI66
aI75
aI69
aI194
aI168
aI57
aI89
aI136
aI49
aI76
aI104
aI166
aI258
aI176
aI117
aI111
aI229
aI87
aI193
aI76
aI65
aI59
aI60
aI136
aI52
aI63
aI61
aI66
aI65
aI57
aI61
aI75
aI84
aI77
aI73
aI60
aI78
aI58
aI56
aI57
aI66
aI61
aI77
aI76
aI129
aI93
aI93
aI222
aI108
aI184
aI61
aI110
aI115
aI115
aI95
aI92
aI109
aI148
aI128
aI70
aI86
aI54
aI79
aI121
aI154
aI131
aI89
aI90
aI176
aI154
aI107
aI81
aI157
aI119
aI95
aI139
aI175
aI117
aI107
aI126
aI277
aI100
aI120
aI113
aI79
aI115
aI77
aI89
aI143
aI150
aI73
aI85
aI82
aI90
aI88
aI69
aI112
aI84
aI94
aI87
aI91
aI80
aI66
aI158
aI40
aI59
aI175
aI99
aI113
aI113
aI57
aI67
aI85
aI87
aI110
aI134
aI103
aI67
aI65
aI73
aI125
aI73
aI72
aI66
aI98
aI46
aI48
aI51
aI69
aI68
aI119
aI64
aI56
aI116
aI87
aI71
aI72
aI70
aI65
aI101
aI58
aI77
aa(lp49
I100
aI91
aI81
aI64
aI117
aI97
aI92
aI86
aI89
aI93
aI89
aI92
aI101
aI104
aI121
aI117
aI128
aI147
aI99
aI131
aI141
aI108
aI121
aI137
aI149
aI131
aI120
aI132
aI119
aI139
aI128
aI210
aI179
aI142
aI147
aI135
aI167
aI168
aI161
aI186
aI182
aI164
aI134
aI186
aI125
aI140
aI216
aI176
aI232
aI174
aI201
aI159
aI191
aI168
aI153
aI226
aI193
aI143
aI209
aI204
aI169
aI142
aI195
aI145
aI145
aI140
aI155
aI122
aI116
aI155
aI137
aI179
aI201
aI171
aI211
aI159
aI208
aI169
aI173
aI174
aI164
aI185
aI207
aI202
aI209
aI183
aI152
aI219
aI148
aI170
aI161
aI174
aI143
aI172
aI198
aI175
aI167
aI162
aI196
aI148
aI139
aI162
aI125
aI138
aI155
aI219
aI168
aI198
aI184
aI143
aI152
aI128
aI157
aI176
aI209
aI161
aI180
aI189
aI209
aI252
aI193
aI202
aI211
aI280
aI211
aI206
aI224
aI192
aI168
aI168
aI299
aI356
aI262
aI249
aI290
aI306
aI240
aI298
aI227
aI209
aI258
aI231
aI180
aI244
aI228
aI203
aI287
aI237
aI222
aI185
aI334
aI213
aI180
aI195
aI194
aI198
aI211
aI201
aI242
aI207
aI269
aI205
aI179
aI245
aI269
aI196
aI182
aI193
aI173
aI192
aI230
aI198
aI262
aI200
aI215
aI272
aI284
aI210
aI241
aI413
aI335
aI224
aI261
aa(lp50
I94
aI65
aI59
aI71
aI70
aI90
aI76
aI75
aI63
aI53
aI47
aI59
aI63
aI61
aI58
aI69
aI70
aI61
aI112
aI95
aI82
aI74
aI92
aI101
aI86
aI74
aI85
aI78
aI71
aI73
aI74
aI170
aI116
aI147
aI121
aI135
aI113
aI122
aI94
aI112
aI132
aI108
aI110
aI91
aI113
aI120
aI107
aI107
aI126
aI93
aI78
aI144
aI120
aI129
aI128
aI120
aI156
aI113
aI107
aI115
aI98
aI96
aI104
aI136
aI98
aI113
aI124
aI104
aI122
aI128
aI109
aI118
aI119
aI141
aI135
aI130
aI157
aI105
aI110
aI142
aI102
aI116
aI105
aI101
aI93
aI122
aI112
aI139
aI118
aI131
aI97
aI88
aI138
aI88
aI100
aI102
aI115
aI118
aI149
aI93
aI107
aI101
aI98
aI95
aI103
aI127
aI128
aI106
aI129
aI121
aI111
aI97
aI126
aI117
aI107
aI113
aI103
aI128
aI96
aI126
aI131
aI140
aI180
aI191
aI142
aI75
aI95
aI107
aI119
aI77
aI93
aI197
aI94
aI117
aI128
aI149
aI106
aI108
aI133
aI175
aI121
aI116
aI133
aI137
aI160
aI118
aI124
aI101
aI132
aI143
aI122
aI142
aI125
aI128
aI130
aI143
aI116
aI171
aI126
aI128
aI119
aI125
aI135
aI143
aI155
aI122
aI133
aI133
aI211
aI143
aI160
aI180
aI134
aI141
aI144
aI123
aI171
aI204
aI153
aI143
aI145
aI170
aI176
aa(lp51
I156
aI171
aI200
aI171
aI154
aI165
aI154
aI146
aI137
aI153
aI166
aI185
aI218
aI142
aI133
aI179
aI169
aI202
aI202
aI186
aI137
aI183
aI152
aI127
aI128
aI168
aI156
aI163
aI120
aI126
aI159
aI161
aI152
aI177
aI194
aI149
aI179
aI243
aI247
aI179
aI195
aI165
aI158
aI171
aI169
aI184
aI196
aI176
aI217
aI128
aI165
aI174
aI237
aI210
aI227
aI200
aI208
aI199
aI224
aI167
aI146
aI153
aI147
aI192
aI215
aI156
aI171
aI153
aI185
aI206
aI171
aI140
aI178
aI174
aI165
aI192
aI188
aI152
aI157
aI126
aI145
aI149
aI154
aI132
aI142
aI136
aI185
aI174
aI145
aI150
aI139
aI133
aI152
aI174
aI192
aI163
aI175
aI172
aI156
aI141
aI160
aI197
aI155
aI197
aI201
aI138
aI308
aI263
aI317
aI232
aI164
aI174
aI155
aI169
aI203
aI156
aI143
aI179
aI128
aI147
aI173
aI207
aI261
aI199
aI232
aI139
aI157
aI222
aI184
aI171
aI179
aI219
aI183
aI166
aI156
aI173
aI160
aI181
aI150
aI126
aI120
aI204
aI124
aI150
aI165
aI138
aI178
aI126
aI148
aI145
aI132
aI172
aI134
aI113
aI100
aI153
aI145
aI146
aI134
aI126
aI137
aI112
aI159
aI157
aI180
aI242
aI122
aI127
aI115
aI138
aI190
aI136
aI131
aI138
aI184
aI141
aI144
aI97
aI107
aI124
aI143
aI137
aI187
aa.